
maple_pio.elf:     file format elf32-littlearm

Sections:
Idx Name          Size      VMA       LMA       File off  Algn
  0 .boot2        00000100  10000000  10000000  00010000  2**0
                  CONTENTS, ALLOC, LOAD, READONLY, CODE
  1 .text         000050c8  10000100  10000100  00010100  2**3
                  CONTENTS, ALLOC, LOAD, READONLY, CODE
  2 .rodata       000036c8  100051c8  100051c8  000151c8  2**2
                  CONTENTS, ALLOC, LOAD, READONLY, DATA
  3 .binary_info  00000024  10008890  10008890  00018890  2**2
                  CONTENTS, ALLOC, LOAD, DATA
  4 .ram_vector_table 000000c0  20000000  20000000  00020a00  2**2
                  CONTENTS
  5 .data         00000940  200000c0  100088b4  000200c0  2**4
                  CONTENTS, ALLOC, LOAD, READONLY, CODE
  6 .uninitialized_data 00000000  20000a00  20000a00  00020ac0  2**0
                  CONTENTS
  7 .scratch_x    00000000  20040000  20040000  00020ac0  2**0
                  CONTENTS
  8 .scratch_y    00000000  20041000  20041000  00020ac0  2**0
                  CONTENTS
  9 .bss          0002a1d0  20000a00  20000a00  00020a00  2**3
                  ALLOC
 10 .heap         00000800  2002abd0  2002abd0  00020ac0  2**2
                  CONTENTS, READONLY
 11 .stack1_dummy 00000800  20040000  20040000  000212c0  2**2
                  CONTENTS
 12 .stack_dummy  00000800  20041000  20041000  00021ac0  2**5
                  CONTENTS, READONLY
 13 .ARM.attributes 00000028  00000000  00000000  000222c0  2**0
                  CONTENTS, READONLY
 14 .comment      0000004d  00000000  00000000  000222e8  2**0
                  CONTENTS, READONLY
 15 .debug_frame  00000054  00000000  00000000  00022338  2**2
                  CONTENTS, READONLY, DEBUGGING, OCTETS

maple_pio.elf:     file format elf32-littlearm


Disassembly of section .boot2:

10000000 <__boot2_start__>:
10000000:	4b32b500 	.word	0x4b32b500
10000004:	60582021 	.word	0x60582021
10000008:	21026898 	.word	0x21026898
1000000c:	60984388 	.word	0x60984388
10000010:	611860d8 	.word	0x611860d8
10000014:	4b2e6158 	.word	0x4b2e6158
10000018:	60992100 	.word	0x60992100
1000001c:	61592102 	.word	0x61592102
10000020:	22f02101 	.word	0x22f02101
10000024:	492b5099 	.word	0x492b5099
10000028:	21016019 	.word	0x21016019
1000002c:	20356099 	.word	0x20356099
10000030:	f844f000 	.word	0xf844f000
10000034:	42902202 	.word	0x42902202
10000038:	2106d014 	.word	0x2106d014
1000003c:	f0006619 	.word	0xf0006619
10000040:	6e19f834 	.word	0x6e19f834
10000044:	66192101 	.word	0x66192101
10000048:	66182000 	.word	0x66182000
1000004c:	f000661a 	.word	0xf000661a
10000050:	6e19f82c 	.word	0x6e19f82c
10000054:	6e196e19 	.word	0x6e196e19
10000058:	f0002005 	.word	0xf0002005
1000005c:	2101f82f 	.word	0x2101f82f
10000060:	d1f94208 	.word	0xd1f94208
10000064:	60992100 	.word	0x60992100
10000068:	6019491b 	.word	0x6019491b
1000006c:	60592100 	.word	0x60592100
10000070:	481b491a 	.word	0x481b491a
10000074:	21016001 	.word	0x21016001
10000078:	21eb6099 	.word	0x21eb6099
1000007c:	21a06619 	.word	0x21a06619
10000080:	f0006619 	.word	0xf0006619
10000084:	2100f812 	.word	0x2100f812
10000088:	49166099 	.word	0x49166099
1000008c:	60014814 	.word	0x60014814
10000090:	60992101 	.word	0x60992101
10000094:	2800bc01 	.word	0x2800bc01
10000098:	4700d000 	.word	0x4700d000
1000009c:	49134812 	.word	0x49134812
100000a0:	c8036008 	.word	0xc8036008
100000a4:	8808f380 	.word	0x8808f380
100000a8:	b5034708 	.word	0xb5034708
100000ac:	20046a99 	.word	0x20046a99
100000b0:	d0fb4201 	.word	0xd0fb4201
100000b4:	42012001 	.word	0x42012001
100000b8:	bd03d1f8 	.word	0xbd03d1f8
100000bc:	6618b502 	.word	0x6618b502
100000c0:	f7ff6618 	.word	0xf7ff6618
100000c4:	6e18fff2 	.word	0x6e18fff2
100000c8:	bd026e18 	.word	0xbd026e18
100000cc:	40020000 	.word	0x40020000
100000d0:	18000000 	.word	0x18000000
100000d4:	00070000 	.word	0x00070000
100000d8:	005f0300 	.word	0x005f0300
100000dc:	00002221 	.word	0x00002221
100000e0:	180000f4 	.word	0x180000f4
100000e4:	a0002022 	.word	0xa0002022
100000e8:	10000100 	.word	0x10000100
100000ec:	e000ed08 	.word	0xe000ed08
	...
100000fc:	7a4eb274 	.word	0x7a4eb274

Disassembly of section .text:

10000100 <__VECTOR_TABLE>:
10000100:	20042000 	.word	0x20042000
10000104:	100001f7 	.word	0x100001f7
10000108:	100001c3 	.word	0x100001c3
1000010c:	100001c5 	.word	0x100001c5
10000110:	100001c1 	.word	0x100001c1
10000114:	100001c1 	.word	0x100001c1
10000118:	100001c1 	.word	0x100001c1
1000011c:	100001c1 	.word	0x100001c1
10000120:	100001c1 	.word	0x100001c1
10000124:	100001c1 	.word	0x100001c1
10000128:	100001c1 	.word	0x100001c1
1000012c:	100001c7 	.word	0x100001c7
10000130:	100001c1 	.word	0x100001c1
10000134:	100001c1 	.word	0x100001c1
10000138:	100001c9 	.word	0x100001c9
1000013c:	100001cb 	.word	0x100001cb
10000140:	100001cd 	.word	0x100001cd
10000144:	100001cd 	.word	0x100001cd
10000148:	100001cd 	.word	0x100001cd
1000014c:	100001cd 	.word	0x100001cd
10000150:	100001cd 	.word	0x100001cd
10000154:	100001cd 	.word	0x100001cd
10000158:	100001cd 	.word	0x100001cd
1000015c:	100001cd 	.word	0x100001cd
10000160:	100001cd 	.word	0x100001cd
10000164:	100001cd 	.word	0x100001cd
10000168:	100001cd 	.word	0x100001cd
1000016c:	100001cd 	.word	0x100001cd
10000170:	100001cd 	.word	0x100001cd
10000174:	100001cd 	.word	0x100001cd
10000178:	100001cd 	.word	0x100001cd
1000017c:	100001cd 	.word	0x100001cd
10000180:	100001cd 	.word	0x100001cd
10000184:	100001cd 	.word	0x100001cd
10000188:	100001cd 	.word	0x100001cd
1000018c:	100001cd 	.word	0x100001cd
10000190:	100001cd 	.word	0x100001cd
10000194:	100001cd 	.word	0x100001cd
10000198:	100001cd 	.word	0x100001cd
1000019c:	100001cd 	.word	0x100001cd
100001a0:	100001cd 	.word	0x100001cd
100001a4:	100001cd 	.word	0x100001cd
100001a8:	100001cd 	.word	0x100001cd
100001ac:	100001cd 	.word	0x100001cd
100001b0:	100001cd 	.word	0x100001cd
100001b4:	100001cd 	.word	0x100001cd
100001b8:	100001cd 	.word	0x100001cd
100001bc:	100001cd 	.word	0x100001cd

100001c0 <isr_invalid>:
100001c0:	be00      	bkpt	0x0000

100001c2 <isr_nmi>:
100001c2:	be00      	bkpt	0x0000

100001c4 <isr_hardfault>:
100001c4:	be00      	bkpt	0x0000

100001c6 <isr_svcall>:
100001c6:	be00      	bkpt	0x0000

100001c8 <isr_pendsv>:
100001c8:	be00      	bkpt	0x0000

100001ca <isr_systick>:
100001ca:	be00      	bkpt	0x0000

100001cc <__unhandled_user_irq>:
100001cc:	f000 f84b 	bl	10000266 <__get_current_exception>
100001d0:	3810      	subs	r0, #16

100001d2 <unhandled_user_irq_num_in_r0>:
100001d2:	be00      	bkpt	0x0000

100001d4 <binary_info_header>:
100001d4:	7188ebf2 	.word	0x7188ebf2
100001d8:	10008890 	.word	0x10008890
100001dc:	100088b4 	.word	0x100088b4
100001e0:	10000234 	.word	0x10000234
100001e4:	e71aa390 	.word	0xe71aa390

100001e8 <_entry_point>:
100001e8:	2000      	movs	r0, #0
100001ea:	4921      	ldr	r1, [pc, #132]	; (10000270 <__get_current_exception+0xa>)
100001ec:	6008      	str	r0, [r1, #0]
100001ee:	c806      	ldmia	r0!, {r1, r2}
100001f0:	f381 8808 	msr	MSP, r1
100001f4:	4710      	bx	r2

100001f6 <_reset_handler>:
100001f6:	481f      	ldr	r0, [pc, #124]	; (10000274 <__get_current_exception+0xe>)
100001f8:	6800      	ldr	r0, [r0, #0]
100001fa:	2800      	cmp	r0, #0
100001fc:	d12f      	bne.n	1000025e <hold_non_core0_in_bootrom>
100001fe:	a40d      	add	r4, pc, #52	; (adr r4, 10000234 <data_cpy_table>)
10000200:	cc0e      	ldmia	r4!, {r1, r2, r3}
10000202:	2900      	cmp	r1, #0
10000204:	d002      	beq.n	1000020c <_reset_handler+0x16>
10000206:	f000 f812 	bl	1000022e <data_cpy>
1000020a:	e7f9      	b.n	10000200 <_reset_handler+0xa>
1000020c:	491a      	ldr	r1, [pc, #104]	; (10000278 <__get_current_exception+0x12>)
1000020e:	4a1b      	ldr	r2, [pc, #108]	; (1000027c <__get_current_exception+0x16>)
10000210:	2000      	movs	r0, #0
10000212:	e000      	b.n	10000216 <bss_fill_test>

10000214 <bss_fill_loop>:
10000214:	c101      	stmia	r1!, {r0}

10000216 <bss_fill_test>:
10000216:	4291      	cmp	r1, r2
10000218:	d1fc      	bne.n	10000214 <bss_fill_loop>

1000021a <platform_entry>:
1000021a:	4919      	ldr	r1, [pc, #100]	; (10000280 <__get_current_exception+0x1a>)
1000021c:	4788      	blx	r1
1000021e:	4919      	ldr	r1, [pc, #100]	; (10000284 <__get_current_exception+0x1e>)
10000220:	4788      	blx	r1
10000222:	4919      	ldr	r1, [pc, #100]	; (10000288 <__get_current_exception+0x22>)
10000224:	4788      	blx	r1
10000226:	be00      	bkpt	0x0000
10000228:	e7fd      	b.n	10000226 <platform_entry+0xc>

1000022a <data_cpy_loop>:
1000022a:	c901      	ldmia	r1!, {r0}
1000022c:	c201      	stmia	r2!, {r0}

1000022e <data_cpy>:
1000022e:	429a      	cmp	r2, r3
10000230:	d3fb      	bcc.n	1000022a <data_cpy_loop>
10000232:	4770      	bx	lr

10000234 <data_cpy_table>:
10000234:	100088b4 	.word	0x100088b4
10000238:	200000c0 	.word	0x200000c0
1000023c:	20000a00 	.word	0x20000a00
10000240:	100091f4 	.word	0x100091f4
10000244:	20040000 	.word	0x20040000
10000248:	20040000 	.word	0x20040000
1000024c:	100091f4 	.word	0x100091f4
10000250:	20041000 	.word	0x20041000
10000254:	20041000 	.word	0x20041000
10000258:	00000000 	.word	0x00000000
1000025c:	4770      	bx	lr

1000025e <hold_non_core0_in_bootrom>:
1000025e:	480b      	ldr	r0, [pc, #44]	; (1000028c <__get_current_exception+0x26>)
10000260:	f003 ff2e 	bl	100040c0 <rom_func_lookup>
10000264:	4700      	bx	r0

10000266 <__get_current_exception>:
10000266:	f3ef 8005 	mrs	r0, IPSR
1000026a:	b2c0      	uxtb	r0, r0
1000026c:	4770      	bx	lr
1000026e:	0000      	.short	0x0000
10000270:	e000ed08 	.word	0xe000ed08
10000274:	d0000000 	.word	0xd0000000
10000278:	20000a00 	.word	0x20000a00
1000027c:	2002abd0 	.word	0x2002abd0
10000280:	10003831 	.word	0x10003831
10000284:	10001049 	.word	0x10001049
10000288:	10003931 	.word	0x10003931
1000028c:	00005657 	.word	0x00005657

10000290 <__bi_50>:
10000290:	50520006 5360b3ab 100087a8              ..RP..`S....

1000029c <__bi_38>:
1000029c:	50520006 02031c86 100087b8              ..RP........

100002a8 <__bi_30>:
100002a8:	50520006 9da22254 100087c4              ..RPT"......

100002b4 <__bi_22>:
100002b4:	50520005 68f465de 100091f4              ..RP.e.h....

100002c0 <_init>:
100002c0:	b5f8      	push	{r3, r4, r5, r6, r7, lr}
100002c2:	46c0      	nop			; (mov r8, r8)

100002c4 <__do_global_dtors_aux>:
100002c4:	b510      	push	{r4, lr}
100002c6:	4c06      	ldr	r4, [pc, #24]	; (100002e0 <__do_global_dtors_aux+0x1c>)
100002c8:	7823      	ldrb	r3, [r4, #0]
100002ca:	2b00      	cmp	r3, #0
100002cc:	d107      	bne.n	100002de <__do_global_dtors_aux+0x1a>
100002ce:	4b05      	ldr	r3, [pc, #20]	; (100002e4 <__do_global_dtors_aux+0x20>)
100002d0:	2b00      	cmp	r3, #0
100002d2:	d002      	beq.n	100002da <__do_global_dtors_aux+0x16>
100002d4:	4804      	ldr	r0, [pc, #16]	; (100002e8 <__do_global_dtors_aux+0x24>)
100002d6:	e000      	b.n	100002da <__do_global_dtors_aux+0x16>
100002d8:	bf00      	nop
100002da:	2301      	movs	r3, #1
100002dc:	7023      	strb	r3, [r4, #0]
100002de:	bd10      	pop	{r4, pc}
100002e0:	20000f30 	.word	0x20000f30
100002e4:	00000000 	.word	0x00000000
100002e8:	100051c8 	.word	0x100051c8

100002ec <frame_dummy>:
100002ec:	4b04      	ldr	r3, [pc, #16]	; (10000300 <frame_dummy+0x14>)
100002ee:	b510      	push	{r4, lr}
100002f0:	2b00      	cmp	r3, #0
100002f2:	d003      	beq.n	100002fc <frame_dummy+0x10>
100002f4:	4903      	ldr	r1, [pc, #12]	; (10000304 <frame_dummy+0x18>)
100002f6:	4804      	ldr	r0, [pc, #16]	; (10000308 <frame_dummy+0x1c>)
100002f8:	e000      	b.n	100002fc <frame_dummy+0x10>
100002fa:	bf00      	nop
100002fc:	bd10      	pop	{r4, pc}
100002fe:	46c0      	nop			; (mov r8, r8)
10000300:	00000000 	.word	0x00000000
10000304:	20000f34 	.word	0x20000f34
10000308:	100051c8 	.word	0x100051c8

1000030c <vibeHandler>:
1000030c:	b5f0      	push	{r4, r5, r6, r7, lr}
1000030e:	46c6      	mov	lr, r8
10000310:	b500      	push	{lr}
10000312:	4d2e      	ldr	r5, [pc, #184]	; (100003cc <vibeHandler+0xc0>)
10000314:	4e2e      	ldr	r6, [pc, #184]	; (100003d0 <vibeHandler+0xc4>)
10000316:	782b      	ldrb	r3, [r5, #0]
10000318:	7834      	ldrb	r4, [r6, #0]
1000031a:	42a3      	cmp	r3, r4
1000031c:	d02c      	beq.n	10000378 <vibeHandler+0x6c>
1000031e:	0862      	lsrs	r2, r4, #1
10000320:	3a01      	subs	r2, #1
10000322:	429a      	cmp	r2, r3
10000324:	dd10      	ble.n	10000348 <vibeHandler+0x3c>
10000326:	4b2b      	ldr	r3, [pc, #172]	; (100003d4 <vibeHandler+0xc8>)
10000328:	6819      	ldr	r1, [r3, #0]
1000032a:	4b2b      	ldr	r3, [pc, #172]	; (100003d8 <vibeHandler+0xcc>)
1000032c:	681b      	ldr	r3, [r3, #0]
1000032e:	041b      	lsls	r3, r3, #16
10000330:	404b      	eors	r3, r1
10000332:	4a2a      	ldr	r2, [pc, #168]	; (100003dc <vibeHandler+0xd0>)
10000334:	0c1b      	lsrs	r3, r3, #16
10000336:	041b      	lsls	r3, r3, #16
10000338:	6013      	str	r3, [r2, #0]
1000033a:	782b      	ldrb	r3, [r5, #0]
1000033c:	3301      	adds	r3, #1
1000033e:	702b      	strb	r3, [r5, #0]
10000340:	2001      	movs	r0, #1
10000342:	bc80      	pop	{r7}
10000344:	46b8      	mov	r8, r7
10000346:	bdf0      	pop	{r4, r5, r6, r7, pc}
10000348:	429a      	cmp	r2, r3
1000034a:	d012      	beq.n	10000372 <vibeHandler+0x66>
1000034c:	3c01      	subs	r4, #1
1000034e:	429c      	cmp	r4, r3
10000350:	dc0f      	bgt.n	10000372 <vibeHandler+0x66>
10000352:	d00e      	beq.n	10000372 <vibeHandler+0x66>
10000354:	2207      	movs	r2, #7
10000356:	0011      	movs	r1, r2
10000358:	4b21      	ldr	r3, [pc, #132]	; (100003e0 <vibeHandler+0xd4>)
1000035a:	781b      	ldrb	r3, [r3, #0]
1000035c:	4019      	ands	r1, r3
1000035e:	421a      	tst	r2, r3
10000360:	d1ee      	bne.n	10000340 <vibeHandler+0x34>
10000362:	4b1c      	ldr	r3, [pc, #112]	; (100003d4 <vibeHandler+0xc8>)
10000364:	4a1d      	ldr	r2, [pc, #116]	; (100003dc <vibeHandler+0xd0>)
10000366:	681b      	ldr	r3, [r3, #0]
10000368:	0c1b      	lsrs	r3, r3, #16
1000036a:	041b      	lsls	r3, r3, #16
1000036c:	6013      	str	r3, [r2, #0]
1000036e:	7029      	strb	r1, [r5, #0]
10000370:	e7e6      	b.n	10000340 <vibeHandler+0x34>
10000372:	4b18      	ldr	r3, [pc, #96]	; (100003d4 <vibeHandler+0xc8>)
10000374:	681b      	ldr	r3, [r3, #0]
10000376:	e7dc      	b.n	10000332 <vibeHandler+0x26>
10000378:	4f1a      	ldr	r7, [pc, #104]	; (100003e4 <vibeHandler+0xd8>)
1000037a:	783b      	ldrb	r3, [r7, #0]
1000037c:	2b00      	cmp	r3, #0
1000037e:	d022      	beq.n	100003c6 <vibeHandler+0xba>
10000380:	4b17      	ldr	r3, [pc, #92]	; (100003e0 <vibeHandler+0xd4>)
10000382:	20fa      	movs	r0, #250	; 0xfa
10000384:	781b      	ldrb	r3, [r3, #0]
10000386:	0100      	lsls	r0, r0, #4
10000388:	4698      	mov	r8, r3
1000038a:	4b17      	ldr	r3, [pc, #92]	; (100003e8 <vibeHandler+0xdc>)
1000038c:	7819      	ldrb	r1, [r3, #0]
1000038e:	3101      	adds	r1, #1
10000390:	f003 fec8 	bl	10004124 <__wrap___aeabi_idiv>
10000394:	2207      	movs	r2, #7
10000396:	4643      	mov	r3, r8
10000398:	4641      	mov	r1, r8
1000039a:	b2c4      	uxtb	r4, r0
1000039c:	7034      	strb	r4, [r6, #0]
1000039e:	2000      	movs	r0, #0
100003a0:	4013      	ands	r3, r2
100003a2:	420a      	tst	r2, r1
100003a4:	d009      	beq.n	100003ba <vibeHandler+0xae>
100003a6:	3b01      	subs	r3, #1
100003a8:	0098      	lsls	r0, r3, #2
100003aa:	18c0      	adds	r0, r0, r3
100003ac:	2106      	movs	r1, #6
100003ae:	0340      	lsls	r0, r0, #13
100003b0:	f003 fee0 	bl	10004174 <__wrap___aeabi_uidiv>
100003b4:	4b0d      	ldr	r3, [pc, #52]	; (100003ec <vibeHandler+0xe0>)
100003b6:	469c      	mov	ip, r3
100003b8:	4460      	add	r0, ip
100003ba:	4b07      	ldr	r3, [pc, #28]	; (100003d8 <vibeHandler+0xcc>)
100003bc:	6018      	str	r0, [r3, #0]
100003be:	2300      	movs	r3, #0
100003c0:	702b      	strb	r3, [r5, #0]
100003c2:	703b      	strb	r3, [r7, #0]
100003c4:	e7ab      	b.n	1000031e <vibeHandler+0x12>
100003c6:	0023      	movs	r3, r4
100003c8:	e7a9      	b.n	1000031e <vibeHandler+0x12>
100003ca:	46c0      	nop			; (mov r8, r8)
100003cc:	2002abcc 	.word	0x2002abcc
100003d0:	2002abcd 	.word	0x2002abcd
100003d4:	40050098 	.word	0x40050098
100003d8:	2002abb8 	.word	0x2002abb8
100003dc:	40051098 	.word	0x40051098
100003e0:	2002abc9 	.word	0x2002abc9
100003e4:	2002abca 	.word	0x2002abca
100003e8:	2002abc6 	.word	0x2002abc6
100003ec:	00005fff 	.word	0x00005fff

100003f0 <pageToggle>:
100003f0:	b510      	push	{r4, lr}
100003f2:	f002 f987 	bl	10002704 <gpio_acknowledge_irq>
100003f6:	f002 ff37 	bl	10003268 <time_us_64>
100003fa:	2900      	cmp	r1, #0
100003fc:	d016      	beq.n	1000042c <pageToggle+0x3c>
100003fe:	22fa      	movs	r2, #250	; 0xfa
10000400:	2300      	movs	r3, #0
10000402:	0092      	lsls	r2, r2, #2
10000404:	f003 fef8 	bl	100041f8 <__wrap___aeabi_uldivmod>
10000408:	21fa      	movs	r1, #250	; 0xfa
1000040a:	4a0c      	ldr	r2, [pc, #48]	; (1000043c <pageToggle+0x4c>)
1000040c:	0049      	lsls	r1, r1, #1
1000040e:	6813      	ldr	r3, [r2, #0]
10000410:	1ac3      	subs	r3, r0, r3
10000412:	428b      	cmp	r3, r1
10000414:	db09      	blt.n	1000042a <pageToggle+0x3a>
10000416:	490a      	ldr	r1, [pc, #40]	; (10000440 <pageToggle+0x50>)
10000418:	680b      	ldr	r3, [r1, #0]
1000041a:	2b08      	cmp	r3, #8
1000041c:	d00b      	beq.n	10000436 <pageToggle+0x46>
1000041e:	3301      	adds	r3, #1
10000420:	600b      	str	r3, [r1, #0]
10000422:	2101      	movs	r1, #1
10000424:	4b07      	ldr	r3, [pc, #28]	; (10000444 <pageToggle+0x54>)
10000426:	6010      	str	r0, [r2, #0]
10000428:	7019      	strb	r1, [r3, #0]
1000042a:	bd10      	pop	{r4, pc}
1000042c:	21fa      	movs	r1, #250	; 0xfa
1000042e:	0089      	lsls	r1, r1, #2
10000430:	f003 fea0 	bl	10004174 <__wrap___aeabi_uidiv>
10000434:	e7e8      	b.n	10000408 <pageToggle+0x18>
10000436:	2301      	movs	r3, #1
10000438:	e7f2      	b.n	10000420 <pageToggle+0x30>
1000043a:	46c0      	nop			; (mov r8, r8)
1000043c:	20027b80 	.word	0x20027b80
10000440:	20000500 	.word	0x20000500
10000444:	2002abc0 	.word	0x2002abc0

10000448 <adc_gpio_init>:
10000448:	b510      	push	{r4, lr}
1000044a:	0004      	movs	r4, r0
1000044c:	211f      	movs	r1, #31
1000044e:	f002 f8ed 	bl	1000262c <gpio_set_function>
10000452:	2200      	movs	r2, #0
10000454:	0020      	movs	r0, r4
10000456:	2100      	movs	r1, #0
10000458:	f002 f900 	bl	1000265c <gpio_set_pulls>
1000045c:	2100      	movs	r1, #0
1000045e:	0020      	movs	r0, r4
10000460:	f002 f95e 	bl	10002720 <gpio_set_input_enabled>
10000464:	bd10      	pop	{r4, pc}
10000466:	46c0      	nop			; (mov r8, r8)

10000468 <BuildInfoPacket>:
10000468:	23d4      	movs	r3, #212	; 0xd4
1000046a:	b510      	push	{r4, lr}
1000046c:	4c15      	ldr	r4, [pc, #84]	; (100004c4 <BuildInfoPacket+0x5c>)
1000046e:	33ff      	adds	r3, #255	; 0xff
10000470:	6023      	str	r3, [r4, #0]
10000472:	4b15      	ldr	r3, [pc, #84]	; (100004c8 <BuildInfoPacket+0x60>)
10000474:	0020      	movs	r0, r4
10000476:	6063      	str	r3, [r4, #4]
10000478:	2380      	movs	r3, #128	; 0x80
1000047a:	045b      	lsls	r3, r3, #17
1000047c:	60a3      	str	r3, [r4, #8]
1000047e:	4b13      	ldr	r3, [pc, #76]	; (100004cc <BuildInfoPacket+0x64>)
10000480:	221e      	movs	r2, #30
10000482:	60e3      	str	r3, [r4, #12]
10000484:	2300      	movs	r3, #0
10000486:	6123      	str	r3, [r4, #16]
10000488:	6163      	str	r3, [r4, #20]
1000048a:	33ff      	adds	r3, #255	; 0xff
1000048c:	8323      	strh	r3, [r4, #24]
1000048e:	4910      	ldr	r1, [pc, #64]	; (100004d0 <BuildInfoPacket+0x68>)
10000490:	301a      	adds	r0, #26
10000492:	f004 f973 	bl	1000477c <__wrap___aeabi_memcpy>
10000496:	0020      	movs	r0, r4
10000498:	223c      	movs	r2, #60	; 0x3c
1000049a:	490e      	ldr	r1, [pc, #56]	; (100004d4 <BuildInfoPacket+0x6c>)
1000049c:	3038      	adds	r0, #56	; 0x38
1000049e:	f004 f96d 	bl	1000477c <__wrap___aeabi_memcpy>
100004a2:	0020      	movs	r0, r4
100004a4:	2200      	movs	r2, #0
100004a6:	4b0c      	ldr	r3, [pc, #48]	; (100004d8 <BuildInfoPacket+0x70>)
100004a8:	3078      	adds	r0, #120	; 0x78
100004aa:	6763      	str	r3, [r4, #116]	; 0x74
100004ac:	1d23      	adds	r3, r4, #4
100004ae:	cb02      	ldmia	r3!, {r1}
100004b0:	404a      	eors	r2, r1
100004b2:	4283      	cmp	r3, r0
100004b4:	d1fb      	bne.n	100004ae <BuildInfoPacket+0x46>
100004b6:	0413      	lsls	r3, r2, #16
100004b8:	405a      	eors	r2, r3
100004ba:	0213      	lsls	r3, r2, #8
100004bc:	405a      	eors	r2, r3
100004be:	67a2      	str	r2, [r4, #120]	; 0x78
100004c0:	bd10      	pop	{r4, pc}
100004c2:	46c0      	nop			; (mov r8, r8)
100004c4:	20000f74 	.word	0x20000f74
100004c8:	1c230005 	.word	0x1c230005
100004cc:	fe060f00 	.word	0xfe060f00
100004d0:	1000522c 	.word	0x1000522c
100004d4:	1000524c 	.word	0x1000524c
100004d8:	01f401ae 	.word	0x01f401ae

100004dc <BuildSubPeripheral0InfoPacket>:
100004dc:	23d4      	movs	r3, #212	; 0xd4
100004de:	b510      	push	{r4, lr}
100004e0:	4c15      	ldr	r4, [pc, #84]	; (10000538 <BuildSubPeripheral0InfoPacket+0x5c>)
100004e2:	33ff      	adds	r3, #255	; 0xff
100004e4:	6023      	str	r3, [r4, #0]
100004e6:	4b15      	ldr	r3, [pc, #84]	; (1000053c <BuildSubPeripheral0InfoPacket+0x60>)
100004e8:	0020      	movs	r0, r4
100004ea:	6063      	str	r3, [r4, #4]
100004ec:	23e0      	movs	r3, #224	; 0xe0
100004ee:	051b      	lsls	r3, r3, #20
100004f0:	60a3      	str	r3, [r4, #8]
100004f2:	4b13      	ldr	r3, [pc, #76]	; (10000540 <BuildSubPeripheral0InfoPacket+0x64>)
100004f4:	221e      	movs	r2, #30
100004f6:	60e3      	str	r3, [r4, #12]
100004f8:	4b12      	ldr	r3, [pc, #72]	; (10000544 <BuildSubPeripheral0InfoPacket+0x68>)
100004fa:	4913      	ldr	r1, [pc, #76]	; (10000548 <BuildSubPeripheral0InfoPacket+0x6c>)
100004fc:	6123      	str	r3, [r4, #16]
100004fe:	4b13      	ldr	r3, [pc, #76]	; (1000054c <BuildSubPeripheral0InfoPacket+0x70>)
10000500:	301a      	adds	r0, #26
10000502:	6163      	str	r3, [r4, #20]
10000504:	23ff      	movs	r3, #255	; 0xff
10000506:	8323      	strh	r3, [r4, #24]
10000508:	f004 f938 	bl	1000477c <__wrap___aeabi_memcpy>
1000050c:	0020      	movs	r0, r4
1000050e:	223c      	movs	r2, #60	; 0x3c
10000510:	490f      	ldr	r1, [pc, #60]	; (10000550 <BuildSubPeripheral0InfoPacket+0x74>)
10000512:	3038      	adds	r0, #56	; 0x38
10000514:	f004 f932 	bl	1000477c <__wrap___aeabi_memcpy>
10000518:	0020      	movs	r0, r4
1000051a:	2200      	movs	r2, #0
1000051c:	4b0d      	ldr	r3, [pc, #52]	; (10000554 <BuildSubPeripheral0InfoPacket+0x78>)
1000051e:	3078      	adds	r0, #120	; 0x78
10000520:	6763      	str	r3, [r4, #116]	; 0x74
10000522:	1d23      	adds	r3, r4, #4
10000524:	cb02      	ldmia	r3!, {r1}
10000526:	404a      	eors	r2, r1
10000528:	4283      	cmp	r3, r0
1000052a:	d1fb      	bne.n	10000524 <BuildSubPeripheral0InfoPacket+0x48>
1000052c:	0413      	lsls	r3, r2, #16
1000052e:	405a      	eors	r2, r3
10000530:	0213      	lsls	r3, r2, #8
10000532:	405a      	eors	r2, r3
10000534:	67a2      	str	r2, [r4, #120]	; 0x78
10000536:	bd10      	pop	{r4, pc}
10000538:	200278f4 	.word	0x200278f4
1000053c:	1c010005 	.word	0x1c010005
10000540:	403f7e7e 	.word	0x403f7e7e
10000544:	00100500 	.word	0x00100500
10000548:	10005288 	.word	0x10005288
1000054c:	00410f00 	.word	0x00410f00
10000550:	1000524c 	.word	0x1000524c
10000554:	00820064 	.word	0x00820064

10000558 <BuildSubPeripheral1InfoPacket>:
10000558:	23d4      	movs	r3, #212	; 0xd4
1000055a:	b510      	push	{r4, lr}
1000055c:	4c15      	ldr	r4, [pc, #84]	; (100005b4 <BuildSubPeripheral1InfoPacket+0x5c>)
1000055e:	33ff      	adds	r3, #255	; 0xff
10000560:	6023      	str	r3, [r4, #0]
10000562:	4b15      	ldr	r3, [pc, #84]	; (100005b8 <BuildSubPeripheral1InfoPacket+0x60>)
10000564:	0020      	movs	r0, r4
10000566:	6063      	str	r3, [r4, #4]
10000568:	2380      	movs	r3, #128	; 0x80
1000056a:	025b      	lsls	r3, r3, #9
1000056c:	60a3      	str	r3, [r4, #8]
1000056e:	4b13      	ldr	r3, [pc, #76]	; (100005bc <BuildSubPeripheral1InfoPacket+0x64>)
10000570:	221e      	movs	r2, #30
10000572:	60e3      	str	r3, [r4, #12]
10000574:	2300      	movs	r3, #0
10000576:	6123      	str	r3, [r4, #16]
10000578:	6163      	str	r3, [r4, #20]
1000057a:	33ff      	adds	r3, #255	; 0xff
1000057c:	8323      	strh	r3, [r4, #24]
1000057e:	4910      	ldr	r1, [pc, #64]	; (100005c0 <BuildSubPeripheral1InfoPacket+0x68>)
10000580:	301a      	adds	r0, #26
10000582:	f004 f8fb 	bl	1000477c <__wrap___aeabi_memcpy>
10000586:	0020      	movs	r0, r4
10000588:	223c      	movs	r2, #60	; 0x3c
1000058a:	490e      	ldr	r1, [pc, #56]	; (100005c4 <BuildSubPeripheral1InfoPacket+0x6c>)
1000058c:	3038      	adds	r0, #56	; 0x38
1000058e:	f004 f8f5 	bl	1000477c <__wrap___aeabi_memcpy>
10000592:	0020      	movs	r0, r4
10000594:	2200      	movs	r2, #0
10000596:	4b0c      	ldr	r3, [pc, #48]	; (100005c8 <BuildSubPeripheral1InfoPacket+0x70>)
10000598:	3078      	adds	r0, #120	; 0x78
1000059a:	6763      	str	r3, [r4, #116]	; 0x74
1000059c:	1d23      	adds	r3, r4, #4
1000059e:	cb02      	ldmia	r3!, {r1}
100005a0:	404a      	eors	r2, r1
100005a2:	4283      	cmp	r3, r0
100005a4:	d1fb      	bne.n	1000059e <BuildSubPeripheral1InfoPacket+0x46>
100005a6:	0413      	lsls	r3, r2, #16
100005a8:	405a      	eors	r2, r3
100005aa:	0213      	lsls	r3, r2, #8
100005ac:	405a      	eors	r2, r3
100005ae:	67a2      	str	r2, [r4, #120]	; 0x78
100005b0:	bd10      	pop	{r4, pc}
100005b2:	46c0      	nop			; (mov r8, r8)
100005b4:	20027970 	.word	0x20027970
100005b8:	1c020005 	.word	0x1c020005
100005bc:	00005004 	.word	0x00005004
100005c0:	100052a8 	.word	0x100052a8
100005c4:	1000524c 	.word	0x1000524c
100005c8:	064000c8 	.word	0x064000c8

100005cc <BuildMemoryInfoPacket>:
100005cc:	2283      	movs	r2, #131	; 0x83
100005ce:	4b10      	ldr	r3, [pc, #64]	; (10000610 <BuildMemoryInfoPacket+0x44>)
100005d0:	b570      	push	{r4, r5, r6, lr}
100005d2:	601a      	str	r2, [r3, #0]
100005d4:	4a0f      	ldr	r2, [pc, #60]	; (10000614 <BuildMemoryInfoPacket+0x48>)
100005d6:	26ff      	movs	r6, #255	; 0xff
100005d8:	605a      	str	r2, [r3, #4]
100005da:	2280      	movs	r2, #128	; 0x80
100005dc:	0492      	lsls	r2, r2, #18
100005de:	609a      	str	r2, [r3, #8]
100005e0:	2200      	movs	r2, #0
100005e2:	200d      	movs	r0, #13
100005e4:	621a      	str	r2, [r3, #32]
100005e6:	4a0c      	ldr	r2, [pc, #48]	; (10000618 <BuildMemoryInfoPacket+0x4c>)
100005e8:	4d0c      	ldr	r5, [pc, #48]	; (1000061c <BuildMemoryInfoPacket+0x50>)
100005ea:	4c0d      	ldr	r4, [pc, #52]	; (10000620 <BuildMemoryInfoPacket+0x54>)
100005ec:	4072      	eors	r2, r6
100005ee:	406a      	eors	r2, r5
100005f0:	490c      	ldr	r1, [pc, #48]	; (10000624 <BuildMemoryInfoPacket+0x58>)
100005f2:	4062      	eors	r2, r4
100005f4:	4042      	eors	r2, r0
100005f6:	61d9      	str	r1, [r3, #28]
100005f8:	4051      	eors	r1, r2
100005fa:	040a      	lsls	r2, r1, #16
100005fc:	404a      	eors	r2, r1
100005fe:	0211      	lsls	r1, r2, #8
10000600:	404a      	eors	r2, r1
10000602:	60de      	str	r6, [r3, #12]
10000604:	611d      	str	r5, [r3, #16]
10000606:	615c      	str	r4, [r3, #20]
10000608:	6198      	str	r0, [r3, #24]
1000060a:	625a      	str	r2, [r3, #36]	; 0x24
1000060c:	bd70      	pop	{r4, r5, r6, pc}
1000060e:	46c0      	nop			; (mov r8, r8)
10000610:	200260c4 	.word	0x200260c4
10000614:	07010008 	.word	0x07010008
10000618:	05010008 	.word	0x05010008
1000061c:	00fe00ff 	.word	0x00fe00ff
10000620:	00fd0001 	.word	0x00fd0001
10000624:	001f00c8 	.word	0x001f00c8

10000628 <BuildLCDInfoPacket>:
10000628:	2233      	movs	r2, #51	; 0x33
1000062a:	4b06      	ldr	r3, [pc, #24]	; (10000644 <BuildLCDInfoPacket+0x1c>)
1000062c:	601a      	str	r2, [r3, #0]
1000062e:	4a06      	ldr	r2, [pc, #24]	; (10000648 <BuildLCDInfoPacket+0x20>)
10000630:	605a      	str	r2, [r3, #4]
10000632:	2280      	movs	r2, #128	; 0x80
10000634:	04d2      	lsls	r2, r2, #19
10000636:	609a      	str	r2, [r3, #8]
10000638:	4a04      	ldr	r2, [pc, #16]	; (1000064c <BuildLCDInfoPacket+0x24>)
1000063a:	60da      	str	r2, [r3, #12]
1000063c:	4a04      	ldr	r2, [pc, #16]	; (10000650 <BuildLCDInfoPacket+0x28>)
1000063e:	611a      	str	r2, [r3, #16]
10000640:	4770      	bx	lr
10000642:	46c0      	nop			; (mov r8, r8)
10000644:	200010b0 	.word	0x200010b0
10000648:	02010008 	.word	0x02010008
1000064c:	00101f2f 	.word	0x00101f2f
10000650:	2f293827 	.word	0x2f293827

10000654 <BuildPuruPuruInfoPacket>:
10000654:	2233      	movs	r2, #51	; 0x33
10000656:	4b0a      	ldr	r3, [pc, #40]	; (10000680 <BuildPuruPuruInfoPacket+0x2c>)
10000658:	490a      	ldr	r1, [pc, #40]	; (10000684 <BuildPuruPuruInfoPacket+0x30>)
1000065a:	601a      	str	r2, [r3, #0]
1000065c:	4a0a      	ldr	r2, [pc, #40]	; (10000688 <BuildPuruPuruInfoPacket+0x34>)
1000065e:	605a      	str	r2, [r3, #4]
10000660:	2280      	movs	r2, #128	; 0x80
10000662:	0252      	lsls	r2, r2, #9
10000664:	609a      	str	r2, [r3, #8]
10000666:	4a09      	ldr	r2, [pc, #36]	; (1000068c <BuildPuruPuruInfoPacket+0x38>)
10000668:	819a      	strh	r2, [r3, #12]
1000066a:	223b      	movs	r2, #59	; 0x3b
1000066c:	739a      	strb	r2, [r3, #14]
1000066e:	68da      	ldr	r2, [r3, #12]
10000670:	4051      	eors	r1, r2
10000672:	040a      	lsls	r2, r1, #16
10000674:	404a      	eors	r2, r1
10000676:	0211      	lsls	r1, r2, #8
10000678:	404a      	eors	r2, r1
1000067a:	611a      	str	r2, [r3, #16]
1000067c:	4770      	bx	lr
1000067e:	46c0      	nop			; (mov r8, r8)
10000680:	20026510 	.word	0x20026510
10000684:	02030008 	.word	0x02030008
10000688:	02020008 	.word	0x02020008
1000068c:	ffffc010 	.word	0xffffc010

10000690 <BuildControllerPacket>:
10000690:	2243      	movs	r2, #67	; 0x43
10000692:	4b06      	ldr	r3, [pc, #24]	; (100006ac <BuildControllerPacket+0x1c>)
10000694:	601a      	str	r2, [r3, #0]
10000696:	4a06      	ldr	r2, [pc, #24]	; (100006b0 <BuildControllerPacket+0x20>)
10000698:	605a      	str	r2, [r3, #4]
1000069a:	2280      	movs	r2, #128	; 0x80
1000069c:	0452      	lsls	r2, r2, #17
1000069e:	609a      	str	r2, [r3, #8]
100006a0:	2200      	movs	r2, #0
100006a2:	60da      	str	r2, [r3, #12]
100006a4:	4a03      	ldr	r2, [pc, #12]	; (100006b4 <BuildControllerPacket+0x24>)
100006a6:	611a      	str	r2, [r3, #16]
100006a8:	4770      	bx	lr
100006aa:	46c0      	nop			; (mov r8, r8)
100006ac:	20000f5c 	.word	0x20000f5c
100006b0:	03230008 	.word	0x03230008
100006b4:	80808080 	.word	0x80808080

100006b8 <BuildDataPacket>:
100006b8:	b510      	push	{r4, lr}
100006ba:	4b11      	ldr	r3, [pc, #68]	; (10000700 <BuildDataPacket+0x48>)
100006bc:	4c11      	ldr	r4, [pc, #68]	; (10000704 <BuildDataPacket+0x4c>)
100006be:	2280      	movs	r2, #128	; 0x80
100006c0:	6023      	str	r3, [r4, #0]
100006c2:	4b11      	ldr	r3, [pc, #68]	; (10000708 <BuildDataPacket+0x50>)
100006c4:	0492      	lsls	r2, r2, #18
100006c6:	6063      	str	r3, [r4, #4]
100006c8:	2300      	movs	r3, #0
100006ca:	0020      	movs	r0, r4
100006cc:	60a2      	str	r2, [r4, #8]
100006ce:	60e3      	str	r3, [r4, #12]
100006d0:	2280      	movs	r2, #128	; 0x80
100006d2:	2100      	movs	r1, #0
100006d4:	0092      	lsls	r2, r2, #2
100006d6:	3010      	adds	r0, #16
100006d8:	f004 f84a 	bl	10004770 <__wrap_memset>
100006dc:	2284      	movs	r2, #132	; 0x84
100006de:	0092      	lsls	r2, r2, #2
100006e0:	4694      	mov	ip, r2
100006e2:	2200      	movs	r2, #0
100006e4:	1d23      	adds	r3, r4, #4
100006e6:	4464      	add	r4, ip
100006e8:	cb02      	ldmia	r3!, {r1}
100006ea:	404a      	eors	r2, r1
100006ec:	42a3      	cmp	r3, r4
100006ee:	d1fb      	bne.n	100006e8 <BuildDataPacket+0x30>
100006f0:	0413      	lsls	r3, r2, #16
100006f2:	405a      	eors	r2, r3
100006f4:	0213      	lsls	r3, r2, #8
100006f6:	405a      	eors	r2, r3
100006f8:	4b04      	ldr	r3, [pc, #16]	; (1000070c <BuildDataPacket+0x54>)
100006fa:	601a      	str	r2, [r3, #0]
100006fc:	bd10      	pop	{r4, pc}
100006fe:	46c0      	nop			; (mov r8, r8)
10000700:	00000833 	.word	0x00000833
10000704:	20000a00 	.word	0x20000a00
10000708:	82010008 	.word	0x82010008
1000070c:	200260f0 	.word	0x200260f0

10000710 <SendControllerStatus>:
10000710:	22d0      	movs	r2, #208	; 0xd0
10000712:	2101      	movs	r1, #1
10000714:	2003      	movs	r0, #3
10000716:	0612      	lsls	r2, r2, #24
10000718:	6853      	ldr	r3, [r2, #4]
1000071a:	6852      	ldr	r2, [r2, #4]
1000071c:	400b      	ands	r3, r1
1000071e:	3b01      	subs	r3, #1
10000720:	4383      	bics	r3, r0
10000722:	489a      	ldr	r0, [pc, #616]	; (1000098c <SendControllerStatus+0x27c>)
10000724:	0852      	lsrs	r2, r2, #1
10000726:	4684      	mov	ip, r0
10000728:	b570      	push	{r4, r5, r6, lr}
1000072a:	4463      	add	r3, ip
1000072c:	4211      	tst	r1, r2
1000072e:	d101      	bne.n	10000734 <SendControllerStatus+0x24>
10000730:	2202      	movs	r2, #2
10000732:	4393      	bics	r3, r2
10000734:	22d0      	movs	r2, #208	; 0xd0
10000736:	0612      	lsls	r2, r2, #24
10000738:	6852      	ldr	r2, [r2, #4]
1000073a:	06d2      	lsls	r2, r2, #27
1000073c:	d401      	bmi.n	10000742 <SendControllerStatus+0x32>
1000073e:	4a94      	ldr	r2, [pc, #592]	; (10000990 <SendControllerStatus+0x280>)
10000740:	4013      	ands	r3, r2
10000742:	22d0      	movs	r2, #208	; 0xd0
10000744:	0612      	lsls	r2, r2, #24
10000746:	6852      	ldr	r2, [r2, #4]
10000748:	0692      	lsls	r2, r2, #26
1000074a:	d401      	bmi.n	10000750 <SendControllerStatus+0x40>
1000074c:	4a91      	ldr	r2, [pc, #580]	; (10000994 <SendControllerStatus+0x284>)
1000074e:	4013      	ands	r3, r2
10000750:	22d0      	movs	r2, #208	; 0xd0
10000752:	0612      	lsls	r2, r2, #24
10000754:	6852      	ldr	r2, [r2, #4]
10000756:	0652      	lsls	r2, r2, #25
10000758:	d401      	bmi.n	1000075e <SendControllerStatus+0x4e>
1000075a:	2210      	movs	r2, #16
1000075c:	4393      	bics	r3, r2
1000075e:	22d0      	movs	r2, #208	; 0xd0
10000760:	0612      	lsls	r2, r2, #24
10000762:	6852      	ldr	r2, [r2, #4]
10000764:	0612      	lsls	r2, r2, #24
10000766:	d401      	bmi.n	1000076c <SendControllerStatus+0x5c>
10000768:	2220      	movs	r2, #32
1000076a:	4393      	bics	r3, r2
1000076c:	22d0      	movs	r2, #208	; 0xd0
1000076e:	0612      	lsls	r2, r2, #24
10000770:	6852      	ldr	r2, [r2, #4]
10000772:	05d2      	lsls	r2, r2, #23
10000774:	d401      	bmi.n	1000077a <SendControllerStatus+0x6a>
10000776:	2240      	movs	r2, #64	; 0x40
10000778:	4393      	bics	r3, r2
1000077a:	22d0      	movs	r2, #208	; 0xd0
1000077c:	0612      	lsls	r2, r2, #24
1000077e:	6852      	ldr	r2, [r2, #4]
10000780:	0592      	lsls	r2, r2, #22
10000782:	d401      	bmi.n	10000788 <SendControllerStatus+0x78>
10000784:	2280      	movs	r2, #128	; 0x80
10000786:	4393      	bics	r3, r2
10000788:	22d0      	movs	r2, #208	; 0xd0
1000078a:	0612      	lsls	r2, r2, #24
1000078c:	6852      	ldr	r2, [r2, #4]
1000078e:	0552      	lsls	r2, r2, #21
10000790:	d401      	bmi.n	10000796 <SendControllerStatus+0x86>
10000792:	2208      	movs	r2, #8
10000794:	4393      	bics	r3, r2
10000796:	21e0      	movs	r1, #224	; 0xe0
10000798:	4c7f      	ldr	r4, [pc, #508]	; (10000998 <SendControllerStatus+0x288>)
1000079a:	4a80      	ldr	r2, [pc, #512]	; (1000099c <SendControllerStatus+0x28c>)
1000079c:	81a3      	strh	r3, [r4, #12]
1000079e:	6813      	ldr	r3, [r2, #0]
100007a0:	01c9      	lsls	r1, r1, #7
100007a2:	400b      	ands	r3, r1
100007a4:	497e      	ldr	r1, [pc, #504]	; (100009a0 <SendControllerStatus+0x290>)
100007a6:	600b      	str	r3, [r1, #0]
100007a8:	2104      	movs	r1, #4
100007aa:	4b7e      	ldr	r3, [pc, #504]	; (100009a4 <SendControllerStatus+0x294>)
100007ac:	6019      	str	r1, [r3, #0]
100007ae:	31fc      	adds	r1, #252	; 0xfc
100007b0:	6813      	ldr	r3, [r2, #0]
100007b2:	420b      	tst	r3, r1
100007b4:	d0fc      	beq.n	100007b0 <SendControllerStatus+0xa0>
100007b6:	4d7c      	ldr	r5, [pc, #496]	; (100009a8 <SendControllerStatus+0x298>)
100007b8:	6850      	ldr	r0, [r2, #4]
100007ba:	682b      	ldr	r3, [r5, #0]
100007bc:	0500      	lsls	r0, r0, #20
100007be:	001a      	movs	r2, r3
100007c0:	3a0f      	subs	r2, #15
100007c2:	0e00      	lsrs	r0, r0, #24
100007c4:	4290      	cmp	r0, r2
100007c6:	d906      	bls.n	100007d6 <SendControllerStatus+0xc6>
100007c8:	0019      	movs	r1, r3
100007ca:	310f      	adds	r1, #15
100007cc:	4288      	cmp	r0, r1
100007ce:	d202      	bcs.n	100007d6 <SendControllerStatus+0xc6>
100007d0:	2380      	movs	r3, #128	; 0x80
100007d2:	7423      	strb	r3, [r4, #16]
100007d4:	e00d      	b.n	100007f2 <SendControllerStatus+0xe2>
100007d6:	4298      	cmp	r0, r3
100007d8:	d300      	bcc.n	100007dc <SendControllerStatus+0xcc>
100007da:	e092      	b.n	10000902 <SendControllerStatus+0x1f2>
100007dc:	686b      	ldr	r3, [r5, #4]
100007de:	b2d2      	uxtb	r2, r2
100007e0:	1f19      	subs	r1, r3, #4
100007e2:	b2c9      	uxtb	r1, r1
100007e4:	1a40      	subs	r0, r0, r1
100007e6:	01c3      	lsls	r3, r0, #7
100007e8:	1a18      	subs	r0, r3, r0
100007ea:	1a51      	subs	r1, r2, r1
100007ec:	f003 fc9a 	bl	10004124 <__wrap___aeabi_idiv>
100007f0:	7420      	strb	r0, [r4, #16]
100007f2:	2380      	movs	r3, #128	; 0x80
100007f4:	4a69      	ldr	r2, [pc, #420]	; (1000099c <SendControllerStatus+0x28c>)
100007f6:	015b      	lsls	r3, r3, #5
100007f8:	6811      	ldr	r1, [r2, #0]
100007fa:	404b      	eors	r3, r1
100007fc:	21e0      	movs	r1, #224	; 0xe0
100007fe:	01c9      	lsls	r1, r1, #7
10000800:	400b      	ands	r3, r1
10000802:	4967      	ldr	r1, [pc, #412]	; (100009a0 <SendControllerStatus+0x290>)
10000804:	600b      	str	r3, [r1, #0]
10000806:	2104      	movs	r1, #4
10000808:	4b66      	ldr	r3, [pc, #408]	; (100009a4 <SendControllerStatus+0x294>)
1000080a:	6019      	str	r1, [r3, #0]
1000080c:	31fc      	adds	r1, #252	; 0xfc
1000080e:	6813      	ldr	r3, [r2, #0]
10000810:	420b      	tst	r3, r1
10000812:	d0fc      	beq.n	1000080e <SendControllerStatus+0xfe>
10000814:	68eb      	ldr	r3, [r5, #12]
10000816:	6850      	ldr	r0, [r2, #4]
10000818:	001a      	movs	r2, r3
1000081a:	0500      	lsls	r0, r0, #20
1000081c:	3a0f      	subs	r2, #15
1000081e:	0e00      	lsrs	r0, r0, #24
10000820:	4290      	cmp	r0, r2
10000822:	d800      	bhi.n	10000826 <SendControllerStatus+0x116>
10000824:	e07f      	b.n	10000926 <SendControllerStatus+0x216>
10000826:	0019      	movs	r1, r3
10000828:	310f      	adds	r1, #15
1000082a:	4288      	cmp	r0, r1
1000082c:	d300      	bcc.n	10000830 <SendControllerStatus+0x120>
1000082e:	e07a      	b.n	10000926 <SendControllerStatus+0x216>
10000830:	2380      	movs	r3, #128	; 0x80
10000832:	7463      	strb	r3, [r4, #17]
10000834:	2380      	movs	r3, #128	; 0x80
10000836:	4a59      	ldr	r2, [pc, #356]	; (1000099c <SendControllerStatus+0x28c>)
10000838:	019b      	lsls	r3, r3, #6
1000083a:	6811      	ldr	r1, [r2, #0]
1000083c:	404b      	eors	r3, r1
1000083e:	21e0      	movs	r1, #224	; 0xe0
10000840:	01c9      	lsls	r1, r1, #7
10000842:	400b      	ands	r3, r1
10000844:	4956      	ldr	r1, [pc, #344]	; (100009a0 <SendControllerStatus+0x290>)
10000846:	600b      	str	r3, [r1, #0]
10000848:	2104      	movs	r1, #4
1000084a:	4b56      	ldr	r3, [pc, #344]	; (100009a4 <SendControllerStatus+0x294>)
1000084c:	6019      	str	r1, [r3, #0]
1000084e:	31fc      	adds	r1, #252	; 0xfc
10000850:	6813      	ldr	r3, [r2, #0]
10000852:	420b      	tst	r3, r1
10000854:	d0fc      	beq.n	10000850 <SendControllerStatus+0x140>
10000856:	6853      	ldr	r3, [r2, #4]
10000858:	69aa      	ldr	r2, [r5, #24]
1000085a:	051b      	lsls	r3, r3, #20
1000085c:	3a0f      	subs	r2, #15
1000085e:	2100      	movs	r1, #0
10000860:	0e1b      	lsrs	r3, r3, #24
10000862:	4293      	cmp	r3, r2
10000864:	d80d      	bhi.n	10000882 <SendControllerStatus+0x172>
10000866:	69e9      	ldr	r1, [r5, #28]
10000868:	b2d2      	uxtb	r2, r2
1000086a:	3904      	subs	r1, #4
1000086c:	b2c9      	uxtb	r1, r1
1000086e:	1a5b      	subs	r3, r3, r1
10000870:	01d8      	lsls	r0, r3, #7
10000872:	1ac0      	subs	r0, r0, r3
10000874:	1a51      	subs	r1, r2, r1
10000876:	0040      	lsls	r0, r0, #1
10000878:	f003 fc54 	bl	10004124 <__wrap___aeabi_idiv>
1000087c:	3001      	adds	r0, #1
1000087e:	43c1      	mvns	r1, r0
10000880:	b2c9      	uxtb	r1, r1
10000882:	23c0      	movs	r3, #192	; 0xc0
10000884:	4a45      	ldr	r2, [pc, #276]	; (1000099c <SendControllerStatus+0x28c>)
10000886:	73e1      	strb	r1, [r4, #15]
10000888:	6811      	ldr	r1, [r2, #0]
1000088a:	019b      	lsls	r3, r3, #6
1000088c:	404b      	eors	r3, r1
1000088e:	21e0      	movs	r1, #224	; 0xe0
10000890:	01c9      	lsls	r1, r1, #7
10000892:	400b      	ands	r3, r1
10000894:	4942      	ldr	r1, [pc, #264]	; (100009a0 <SendControllerStatus+0x290>)
10000896:	600b      	str	r3, [r1, #0]
10000898:	2104      	movs	r1, #4
1000089a:	4b42      	ldr	r3, [pc, #264]	; (100009a4 <SendControllerStatus+0x294>)
1000089c:	6019      	str	r1, [r3, #0]
1000089e:	31fc      	adds	r1, #252	; 0xfc
100008a0:	6813      	ldr	r3, [r2, #0]
100008a2:	420b      	tst	r3, r1
100008a4:	d0fc      	beq.n	100008a0 <SendControllerStatus+0x190>
100008a6:	6853      	ldr	r3, [r2, #4]
100008a8:	6a2a      	ldr	r2, [r5, #32]
100008aa:	051b      	lsls	r3, r3, #20
100008ac:	0011      	movs	r1, r2
100008ae:	390f      	subs	r1, #15
100008b0:	0e1b      	lsrs	r3, r3, #24
100008b2:	428b      	cmp	r3, r1
100008b4:	d945      	bls.n	10000942 <SendControllerStatus+0x232>
100008b6:	2300      	movs	r3, #0
100008b8:	73a3      	strb	r3, [r4, #14]
100008ba:	213f      	movs	r1, #63	; 0x3f
100008bc:	6862      	ldr	r2, [r4, #4]
100008be:	68a3      	ldr	r3, [r4, #8]
100008c0:	4053      	eors	r3, r2
100008c2:	68e2      	ldr	r2, [r4, #12]
100008c4:	4053      	eors	r3, r2
100008c6:	6922      	ldr	r2, [r4, #16]
100008c8:	4053      	eors	r3, r2
100008ca:	041a      	lsls	r2, r3, #16
100008cc:	4053      	eors	r3, r2
100008ce:	021a      	lsls	r2, r3, #8
100008d0:	4053      	eors	r3, r2
100008d2:	6163      	str	r3, [r4, #20]
100008d4:	4b35      	ldr	r3, [pc, #212]	; (100009ac <SendControllerStatus+0x29c>)
100008d6:	789a      	ldrb	r2, [r3, #2]
100008d8:	438a      	bics	r2, r1
100008da:	b253      	sxtb	r3, r2
100008dc:	79a2      	ldrb	r2, [r4, #6]
100008de:	400a      	ands	r2, r1
100008e0:	431a      	orrs	r2, r3
100008e2:	71a2      	strb	r2, [r4, #6]
100008e4:	7962      	ldrb	r2, [r4, #5]
100008e6:	4011      	ands	r1, r2
100008e8:	22a0      	movs	r2, #160	; 0xa0
100008ea:	05d2      	lsls	r2, r2, #23
100008ec:	4694      	mov	ip, r2
100008ee:	2206      	movs	r2, #6
100008f0:	430b      	orrs	r3, r1
100008f2:	7163      	strb	r3, [r4, #5]
100008f4:	4b2e      	ldr	r3, [pc, #184]	; (100009b0 <SendControllerStatus+0x2a0>)
100008f6:	681b      	ldr	r3, [r3, #0]
100008f8:	019b      	lsls	r3, r3, #6
100008fa:	4463      	add	r3, ip
100008fc:	601c      	str	r4, [r3, #0]
100008fe:	61da      	str	r2, [r3, #28]
10000900:	bd70      	pop	{r4, r5, r6, pc}
10000902:	4298      	cmp	r0, r3
10000904:	d800      	bhi.n	10000908 <SendControllerStatus+0x1f8>
10000906:	e774      	b.n	100007f2 <SendControllerStatus+0xe2>
10000908:	330f      	adds	r3, #15
1000090a:	b2db      	uxtb	r3, r3
1000090c:	1ac0      	subs	r0, r0, r3
1000090e:	0182      	lsls	r2, r0, #6
10000910:	1a10      	subs	r0, r2, r0
10000912:	68aa      	ldr	r2, [r5, #8]
10000914:	0040      	lsls	r0, r0, #1
10000916:	1d11      	adds	r1, r2, #4
10000918:	b2c9      	uxtb	r1, r1
1000091a:	1ac9      	subs	r1, r1, r3
1000091c:	f003 fc02 	bl	10004124 <__wrap___aeabi_idiv>
10000920:	387f      	subs	r0, #127	; 0x7f
10000922:	7420      	strb	r0, [r4, #16]
10000924:	e765      	b.n	100007f2 <SendControllerStatus+0xe2>
10000926:	4298      	cmp	r0, r3
10000928:	d21d      	bcs.n	10000966 <SendControllerStatus+0x256>
1000092a:	692b      	ldr	r3, [r5, #16]
1000092c:	b2d2      	uxtb	r2, r2
1000092e:	1f19      	subs	r1, r3, #4
10000930:	b2c9      	uxtb	r1, r1
10000932:	1a40      	subs	r0, r0, r1
10000934:	01c3      	lsls	r3, r0, #7
10000936:	1a18      	subs	r0, r3, r0
10000938:	1a51      	subs	r1, r2, r1
1000093a:	f003 fbf3 	bl	10004124 <__wrap___aeabi_idiv>
1000093e:	7460      	strb	r0, [r4, #17]
10000940:	e778      	b.n	10000834 <SendControllerStatus+0x124>
10000942:	320f      	adds	r2, #15
10000944:	4293      	cmp	r3, r2
10000946:	d8b8      	bhi.n	100008ba <SendControllerStatus+0x1aa>
10000948:	6a6a      	ldr	r2, [r5, #36]	; 0x24
1000094a:	b2c9      	uxtb	r1, r1
1000094c:	3a04      	subs	r2, #4
1000094e:	b2d2      	uxtb	r2, r2
10000950:	1a9b      	subs	r3, r3, r2
10000952:	01d8      	lsls	r0, r3, #7
10000954:	1ac0      	subs	r0, r0, r3
10000956:	0040      	lsls	r0, r0, #1
10000958:	1a89      	subs	r1, r1, r2
1000095a:	f003 fbe3 	bl	10004124 <__wrap___aeabi_idiv>
1000095e:	3001      	adds	r0, #1
10000960:	43c0      	mvns	r0, r0
10000962:	73a0      	strb	r0, [r4, #14]
10000964:	e7a9      	b.n	100008ba <SendControllerStatus+0x1aa>
10000966:	4298      	cmp	r0, r3
10000968:	d800      	bhi.n	1000096c <SendControllerStatus+0x25c>
1000096a:	e763      	b.n	10000834 <SendControllerStatus+0x124>
1000096c:	330f      	adds	r3, #15
1000096e:	b2db      	uxtb	r3, r3
10000970:	1ac0      	subs	r0, r0, r3
10000972:	0182      	lsls	r2, r0, #6
10000974:	1a10      	subs	r0, r2, r0
10000976:	696a      	ldr	r2, [r5, #20]
10000978:	0040      	lsls	r0, r0, #1
1000097a:	1d11      	adds	r1, r2, #4
1000097c:	b2c9      	uxtb	r1, r1
1000097e:	1ac9      	subs	r1, r1, r3
10000980:	f003 fbd0 	bl	10004124 <__wrap___aeabi_idiv>
10000984:	387f      	subs	r0, #127	; 0x7f
10000986:	7460      	strb	r0, [r4, #17]
10000988:	e754      	b.n	10000834 <SendControllerStatus+0x124>
1000098a:	46c0      	nop			; (mov r8, r8)
1000098c:	0000ffff 	.word	0x0000ffff
10000990:	fffffbff 	.word	0xfffffbff
10000994:	fffffdff 	.word	0xfffffdff
10000998:	20000f5c 	.word	0x20000f5c
1000099c:	4004c000 	.word	0x4004c000
100009a0:	4004d000 	.word	0x4004d000
100009a4:	4004e000 	.word	0x4004e000
100009a8:	200278cc 	.word	0x200278cc
100009ac:	200260f4 	.word	0x200260f4
100009b0:	200279ec 	.word	0x200279ec

100009b4 <SendBlockReadResponsePacket>:
100009b4:	b570      	push	{r4, r5, r6, lr}
100009b6:	4d36      	ldr	r5, [pc, #216]	; (10000a90 <SendBlockReadResponsePacket+0xdc>)
100009b8:	1e04      	subs	r4, r0, #0
100009ba:	682b      	ldr	r3, [r5, #0]
100009bc:	d028      	beq.n	10000a10 <SendBlockReadResponsePacket+0x5c>
100009be:	4935      	ldr	r1, [pc, #212]	; (10000a94 <SendBlockReadResponsePacket+0xe0>)
100009c0:	4a35      	ldr	r2, [pc, #212]	; (10000a98 <SendBlockReadResponsePacket+0xe4>)
100009c2:	6809      	ldr	r1, [r1, #0]
100009c4:	60d3      	str	r3, [r2, #12]
100009c6:	404b      	eors	r3, r1
100009c8:	6111      	str	r1, [r2, #16]
100009ca:	0419      	lsls	r1, r3, #16
100009cc:	404b      	eors	r3, r1
100009ce:	4933      	ldr	r1, [pc, #204]	; (10000a9c <SendBlockReadResponsePacket+0xe8>)
100009d0:	203f      	movs	r0, #63	; 0x3f
100009d2:	6809      	ldr	r1, [r1, #0]
100009d4:	4059      	eors	r1, r3
100009d6:	021b      	lsls	r3, r3, #8
100009d8:	404b      	eors	r3, r1
100009da:	6153      	str	r3, [r2, #20]
100009dc:	2301      	movs	r3, #1
100009de:	425b      	negs	r3, r3
100009e0:	602b      	str	r3, [r5, #0]
100009e2:	4b2f      	ldr	r3, [pc, #188]	; (10000aa0 <SendBlockReadResponsePacket+0xec>)
100009e4:	7899      	ldrb	r1, [r3, #2]
100009e6:	4381      	bics	r1, r0
100009e8:	b24b      	sxtb	r3, r1
100009ea:	7991      	ldrb	r1, [r2, #6]
100009ec:	4001      	ands	r1, r0
100009ee:	4319      	orrs	r1, r3
100009f0:	7191      	strb	r1, [r2, #6]
100009f2:	7951      	ldrb	r1, [r2, #5]
100009f4:	4008      	ands	r0, r1
100009f6:	21a0      	movs	r1, #160	; 0xa0
100009f8:	05c9      	lsls	r1, r1, #23
100009fa:	468c      	mov	ip, r1
100009fc:	4303      	orrs	r3, r0
100009fe:	7153      	strb	r3, [r2, #5]
10000a00:	4b28      	ldr	r3, [pc, #160]	; (10000aa4 <SendBlockReadResponsePacket+0xf0>)
10000a02:	681b      	ldr	r3, [r3, #0]
10000a04:	019b      	lsls	r3, r3, #6
10000a06:	4463      	add	r3, ip
10000a08:	601a      	str	r2, [r3, #0]
10000a0a:	2206      	movs	r2, #6
10000a0c:	61da      	str	r2, [r3, #28]
10000a0e:	bd70      	pop	{r4, r5, r6, pc}
10000a10:	21ff      	movs	r1, #255	; 0xff
10000a12:	000a      	movs	r2, r1
10000a14:	4e24      	ldr	r6, [pc, #144]	; (10000aa8 <SendBlockReadResponsePacket+0xf4>)
10000a16:	401a      	ands	r2, r3
10000a18:	60f3      	str	r3, [r6, #12]
10000a1a:	0c1b      	lsrs	r3, r3, #16
10000a1c:	400b      	ands	r3, r1
10000a1e:	0030      	movs	r0, r6
10000a20:	0091      	lsls	r1, r2, #2
10000a22:	2280      	movs	r2, #128	; 0x80
10000a24:	18c9      	adds	r1, r1, r3
10000a26:	4b21      	ldr	r3, [pc, #132]	; (10000aac <SendBlockReadResponsePacket+0xf8>)
10000a28:	01c9      	lsls	r1, r1, #7
10000a2a:	18c9      	adds	r1, r1, r3
10000a2c:	0092      	lsls	r2, r2, #2
10000a2e:	3010      	adds	r0, #16
10000a30:	f003 fea4 	bl	1000477c <__wrap___aeabi_memcpy>
10000a34:	2284      	movs	r2, #132	; 0x84
10000a36:	0033      	movs	r3, r6
10000a38:	0092      	lsls	r2, r2, #2
10000a3a:	330c      	adds	r3, #12
10000a3c:	18b1      	adds	r1, r6, r2
10000a3e:	cb04      	ldmia	r3!, {r2}
10000a40:	4054      	eors	r4, r2
10000a42:	428b      	cmp	r3, r1
10000a44:	d1fb      	bne.n	10000a3e <SendBlockReadResponsePacket+0x8a>
10000a46:	4b15      	ldr	r3, [pc, #84]	; (10000a9c <SendBlockReadResponsePacket+0xe8>)
10000a48:	0420      	lsls	r0, r4, #16
10000a4a:	4044      	eors	r4, r0
10000a4c:	6818      	ldr	r0, [r3, #0]
10000a4e:	2384      	movs	r3, #132	; 0x84
10000a50:	4060      	eors	r0, r4
10000a52:	0224      	lsls	r4, r4, #8
10000a54:	009b      	lsls	r3, r3, #2
10000a56:	4044      	eors	r4, r0
10000a58:	50f4      	str	r4, [r6, r3]
10000a5a:	2301      	movs	r3, #1
10000a5c:	213f      	movs	r1, #63	; 0x3f
10000a5e:	425b      	negs	r3, r3
10000a60:	602b      	str	r3, [r5, #0]
10000a62:	4b0f      	ldr	r3, [pc, #60]	; (10000aa0 <SendBlockReadResponsePacket+0xec>)
10000a64:	789a      	ldrb	r2, [r3, #2]
10000a66:	438a      	bics	r2, r1
10000a68:	b253      	sxtb	r3, r2
10000a6a:	79b2      	ldrb	r2, [r6, #6]
10000a6c:	400a      	ands	r2, r1
10000a6e:	431a      	orrs	r2, r3
10000a70:	71b2      	strb	r2, [r6, #6]
10000a72:	7972      	ldrb	r2, [r6, #5]
10000a74:	4011      	ands	r1, r2
10000a76:	22a0      	movs	r2, #160	; 0xa0
10000a78:	05d2      	lsls	r2, r2, #23
10000a7a:	4694      	mov	ip, r2
10000a7c:	2285      	movs	r2, #133	; 0x85
10000a7e:	430b      	orrs	r3, r1
10000a80:	7173      	strb	r3, [r6, #5]
10000a82:	4b08      	ldr	r3, [pc, #32]	; (10000aa4 <SendBlockReadResponsePacket+0xf0>)
10000a84:	681b      	ldr	r3, [r3, #0]
10000a86:	019b      	lsls	r3, r3, #6
10000a88:	4463      	add	r3, ip
10000a8a:	601e      	str	r6, [r3, #0]
10000a8c:	61da      	str	r2, [r3, #28]
10000a8e:	e7be      	b.n	10000a0e <SendBlockReadResponsePacket+0x5a>
10000a90:	20000508 	.word	0x20000508
10000a94:	20000f58 	.word	0x20000f58
10000a98:	20000c18 	.word	0x20000c18
10000a9c:	200260f0 	.word	0x200260f0
10000aa0:	200260f4 	.word	0x200260f4
10000aa4:	200279ec 	.word	0x200279ec
10000aa8:	20000a00 	.word	0x20000a00
10000aac:	200060c4 	.word	0x200060c4

10000ab0 <BlockWrite>:
10000ab0:	b510      	push	{r4, lr}
10000ab2:	0404      	lsls	r4, r0, #16
10000ab4:	0200      	lsls	r0, r0, #8
10000ab6:	0e00      	lsrs	r0, r0, #24
10000ab8:	0ba4      	lsrs	r4, r4, #14
10000aba:	1824      	adds	r4, r4, r0
10000abc:	4809      	ldr	r0, [pc, #36]	; (10000ae4 <BlockWrite+0x34>)
10000abe:	01e4      	lsls	r4, r4, #7
10000ac0:	2280      	movs	r2, #128	; 0x80
10000ac2:	1820      	adds	r0, r4, r0
10000ac4:	f003 fe5a 	bl	1000477c <__wrap___aeabi_memcpy>
10000ac8:	2301      	movs	r3, #1
10000aca:	0b24      	lsrs	r4, r4, #12
10000acc:	40a3      	lsls	r3, r4
10000ace:	4a06      	ldr	r2, [pc, #24]	; (10000ae8 <BlockWrite+0x38>)
10000ad0:	6811      	ldr	r1, [r2, #0]
10000ad2:	430b      	orrs	r3, r1
10000ad4:	6013      	str	r3, [r2, #0]
10000ad6:	2200      	movs	r2, #0
10000ad8:	4b04      	ldr	r3, [pc, #16]	; (10000aec <BlockWrite+0x3c>)
10000ada:	601a      	str	r2, [r3, #0]
10000adc:	4b04      	ldr	r3, [pc, #16]	; (10000af0 <BlockWrite+0x40>)
10000ade:	3208      	adds	r2, #8
10000ae0:	701a      	strb	r2, [r3, #0]
10000ae2:	bd10      	pop	{r4, pc}
10000ae4:	200060c4 	.word	0x200060c4
10000ae8:	20027524 	.word	0x20027524
10000aec:	20000504 	.word	0x20000504
10000af0:	2002abbf 	.word	0x2002abbf

10000af4 <ConsumePacket.part.0>:
10000af4:	b570      	push	{r4, r5, r6, lr}
10000af6:	1e41      	subs	r1, r0, #1
10000af8:	2801      	cmp	r0, #1
10000afa:	d005      	beq.n	10000b08 <ConsumePacket.part.0+0x14>
10000afc:	488f      	ldr	r0, [pc, #572]	; (10000d3c <ConsumePacket.part.0+0x248>)
10000afe:	78c3      	ldrb	r3, [r0, #3]
10000b00:	1c5a      	adds	r2, r3, #1
10000b02:	0092      	lsls	r2, r2, #2
10000b04:	4291      	cmp	r1, r2
10000b06:	d001      	beq.n	10000b0c <ConsumePacket.part.0+0x18>
10000b08:	2000      	movs	r0, #0
10000b0a:	bd70      	pop	{r4, r5, r6, pc}
10000b0c:	243f      	movs	r4, #63	; 0x3f
10000b0e:	7841      	ldrb	r1, [r0, #1]
10000b10:	7885      	ldrb	r5, [r0, #2]
10000b12:	4021      	ands	r1, r4
10000b14:	402c      	ands	r4, r5
10000b16:	7041      	strb	r1, [r0, #1]
10000b18:	7084      	strb	r4, [r0, #2]
10000b1a:	2920      	cmp	r1, #32
10000b1c:	d00b      	beq.n	10000b36 <ConsumePacket.part.0+0x42>
10000b1e:	2901      	cmp	r1, #1
10000b20:	d100      	bne.n	10000b24 <ConsumePacket.part.0+0x30>
10000b22:	e08f      	b.n	10000c44 <ConsumePacket.part.0+0x150>
10000b24:	2902      	cmp	r1, #2
10000b26:	d1ef      	bne.n	10000b08 <ConsumePacket.part.0+0x14>
10000b28:	7801      	ldrb	r1, [r0, #0]
10000b2a:	290e      	cmp	r1, #14
10000b2c:	d8ec      	bhi.n	10000b08 <ConsumePacket.part.0+0x14>
10000b2e:	4c84      	ldr	r4, [pc, #528]	; (10000d40 <ConsumePacket.part.0+0x24c>)
10000b30:	0089      	lsls	r1, r1, #2
10000b32:	5861      	ldr	r1, [r4, r1]
10000b34:	468f      	mov	pc, r1
10000b36:	2200      	movs	r2, #0
10000b38:	5682      	ldrsb	r2, [r0, r2]
10000b3a:	2a08      	cmp	r2, #8
10000b3c:	d026      	beq.n	10000b8c <ConsumePacket.part.0+0x98>
10000b3e:	dc13      	bgt.n	10000b68 <ConsumePacket.part.0+0x74>
10000b40:	2a01      	cmp	r2, #1
10000b42:	d01f      	beq.n	10000b84 <ConsumePacket.part.0+0x90>
10000b44:	2a05      	cmp	r2, #5
10000b46:	d1df      	bne.n	10000b08 <ConsumePacket.part.0+0x14>
10000b48:	2b1c      	cmp	r3, #28
10000b4a:	d1dd      	bne.n	10000b08 <ConsumePacket.part.0+0x14>
10000b4c:	6843      	ldr	r3, [r0, #4]
10000b4e:	ba1b      	rev	r3, r3
10000b50:	6043      	str	r3, [r0, #4]
10000b52:	6883      	ldr	r3, [r0, #8]
10000b54:	ba1b      	rev	r3, r3
10000b56:	6083      	str	r3, [r0, #8]
10000b58:	68c3      	ldr	r3, [r0, #12]
10000b5a:	ba1b      	rev	r3, r3
10000b5c:	60c3      	str	r3, [r0, #12]
10000b5e:	6903      	ldr	r3, [r0, #16]
10000b60:	ba1b      	rev	r3, r3
10000b62:	6103      	str	r3, [r0, #16]
10000b64:	2001      	movs	r0, #1
10000b66:	e7d0      	b.n	10000b0a <ConsumePacket.part.0+0x16>
10000b68:	2a09      	cmp	r2, #9
10000b6a:	d1cd      	bne.n	10000b08 <ConsumePacket.part.0+0x14>
10000b6c:	2b00      	cmp	r3, #0
10000b6e:	d0cb      	beq.n	10000b08 <ConsumePacket.part.0+0x14>
10000b70:	2380      	movs	r3, #128	; 0x80
10000b72:	6842      	ldr	r2, [r0, #4]
10000b74:	045b      	lsls	r3, r3, #17
10000b76:	429a      	cmp	r2, r3
10000b78:	d1c6      	bne.n	10000b08 <ConsumePacket.part.0+0x14>
10000b7a:	2202      	movs	r2, #2
10000b7c:	4b71      	ldr	r3, [pc, #452]	; (10000d44 <ConsumePacket.part.0+0x250>)
10000b7e:	2001      	movs	r0, #1
10000b80:	701a      	strb	r2, [r3, #0]
10000b82:	e7c2      	b.n	10000b0a <ConsumePacket.part.0+0x16>
10000b84:	4b6f      	ldr	r3, [pc, #444]	; (10000d44 <ConsumePacket.part.0+0x250>)
10000b86:	2001      	movs	r0, #1
10000b88:	701a      	strb	r2, [r3, #0]
10000b8a:	e7be      	b.n	10000b0a <ConsumePacket.part.0+0x16>
10000b8c:	2b03      	cmp	r3, #3
10000b8e:	d1bb      	bne.n	10000b08 <ConsumePacket.part.0+0x14>
10000b90:	6843      	ldr	r3, [r0, #4]
10000b92:	ba1b      	rev	r3, r3
10000b94:	6043      	str	r3, [r0, #4]
10000b96:	1e58      	subs	r0, r3, #1
10000b98:	4243      	negs	r3, r0
10000b9a:	4158      	adcs	r0, r3
10000b9c:	b2c0      	uxtb	r0, r0
10000b9e:	e7b4      	b.n	10000b0a <ConsumePacket.part.0+0x16>
10000ba0:	2001      	movs	r0, #1
10000ba2:	e7b2      	b.n	10000b0a <ConsumePacket.part.0+0x16>
10000ba4:	2b01      	cmp	r3, #1
10000ba6:	d9af      	bls.n	10000b08 <ConsumePacket.part.0+0x14>
10000ba8:	2380      	movs	r3, #128	; 0x80
10000baa:	6842      	ldr	r2, [r0, #4]
10000bac:	025b      	lsls	r3, r3, #9
10000bae:	429a      	cmp	r2, r3
10000bb0:	d1aa      	bne.n	10000b08 <ConsumePacket.part.0+0x14>
10000bb2:	6883      	ldr	r3, [r0, #8]
10000bb4:	2b00      	cmp	r3, #0
10000bb6:	d1a7      	bne.n	10000b08 <ConsumePacket.part.0+0x14>
10000bb8:	2207      	movs	r2, #7
10000bba:	4b62      	ldr	r3, [pc, #392]	; (10000d44 <ConsumePacket.part.0+0x250>)
10000bbc:	2001      	movs	r0, #1
10000bbe:	701a      	strb	r2, [r3, #0]
10000bc0:	e7a3      	b.n	10000b0a <ConsumePacket.part.0+0x16>
10000bc2:	4258      	negs	r0, r3
10000bc4:	4158      	adcs	r0, r3
10000bc6:	b2c0      	uxtb	r0, r0
10000bc8:	e79f      	b.n	10000b0a <ConsumePacket.part.0+0x16>
10000bca:	2b01      	cmp	r3, #1
10000bcc:	d99c      	bls.n	10000b08 <ConsumePacket.part.0+0x14>
10000bce:	220b      	movs	r2, #11
10000bd0:	4b5c      	ldr	r3, [pc, #368]	; (10000d44 <ConsumePacket.part.0+0x250>)
10000bd2:	2001      	movs	r0, #1
10000bd4:	701a      	strb	r2, [r3, #0]
10000bd6:	e798      	b.n	10000b0a <ConsumePacket.part.0+0x16>
10000bd8:	2b01      	cmp	r3, #1
10000bda:	d800      	bhi.n	10000bde <ConsumePacket.part.0+0xea>
10000bdc:	e794      	b.n	10000b08 <ConsumePacket.part.0+0x14>
10000bde:	6883      	ldr	r3, [r0, #8]
10000be0:	4a59      	ldr	r2, [pc, #356]	; (10000d48 <ConsumePacket.part.0+0x254>)
10000be2:	0a19      	lsrs	r1, r3, #8
10000be4:	7013      	strb	r3, [r2, #0]
10000be6:	4a59      	ldr	r2, [pc, #356]	; (10000d4c <ConsumePacket.part.0+0x258>)
10000be8:	2001      	movs	r0, #1
10000bea:	7011      	strb	r1, [r2, #0]
10000bec:	4a58      	ldr	r2, [pc, #352]	; (10000d50 <ConsumePacket.part.0+0x25c>)
10000bee:	0c19      	lsrs	r1, r3, #16
10000bf0:	7011      	strb	r1, [r2, #0]
10000bf2:	4a58      	ldr	r2, [pc, #352]	; (10000d54 <ConsumePacket.part.0+0x260>)
10000bf4:	0e1b      	lsrs	r3, r3, #24
10000bf6:	7013      	strb	r3, [r2, #0]
10000bf8:	2201      	movs	r2, #1
10000bfa:	4b57      	ldr	r3, [pc, #348]	; (10000d58 <ConsumePacket.part.0+0x264>)
10000bfc:	701a      	strb	r2, [r3, #0]
10000bfe:	4b51      	ldr	r3, [pc, #324]	; (10000d44 <ConsumePacket.part.0+0x250>)
10000c00:	3207      	adds	r2, #7
10000c02:	701a      	strb	r2, [r3, #0]
10000c04:	e781      	b.n	10000b0a <ConsumePacket.part.0+0x16>
10000c06:	2b01      	cmp	r3, #1
10000c08:	d800      	bhi.n	10000c0c <ConsumePacket.part.0+0x118>
10000c0a:	e77d      	b.n	10000b08 <ConsumePacket.part.0+0x14>
10000c0c:	2380      	movs	r3, #128	; 0x80
10000c0e:	6841      	ldr	r1, [r0, #4]
10000c10:	025b      	lsls	r3, r3, #9
10000c12:	4299      	cmp	r1, r3
10000c14:	d000      	beq.n	10000c18 <ConsumePacket.part.0+0x124>
10000c16:	e777      	b.n	10000b08 <ConsumePacket.part.0+0x14>
10000c18:	3a0c      	subs	r2, #12
10000c1a:	4950      	ldr	r1, [pc, #320]	; (10000d5c <ConsumePacket.part.0+0x268>)
10000c1c:	4850      	ldr	r0, [pc, #320]	; (10000d60 <ConsumePacket.part.0+0x26c>)
10000c1e:	f003 fdad 	bl	1000477c <__wrap___aeabi_memcpy>
10000c22:	2208      	movs	r2, #8
10000c24:	4b47      	ldr	r3, [pc, #284]	; (10000d44 <ConsumePacket.part.0+0x250>)
10000c26:	2001      	movs	r0, #1
10000c28:	701a      	strb	r2, [r3, #0]
10000c2a:	e76e      	b.n	10000b0a <ConsumePacket.part.0+0x16>
10000c2c:	2b01      	cmp	r3, #1
10000c2e:	d800      	bhi.n	10000c32 <ConsumePacket.part.0+0x13e>
10000c30:	e76a      	b.n	10000b08 <ConsumePacket.part.0+0x14>
10000c32:	6883      	ldr	r3, [r0, #8]
10000c34:	4a4b      	ldr	r2, [pc, #300]	; (10000d64 <ConsumePacket.part.0+0x270>)
10000c36:	ba1b      	rev	r3, r3
10000c38:	6013      	str	r3, [r2, #0]
10000c3a:	220a      	movs	r2, #10
10000c3c:	4b41      	ldr	r3, [pc, #260]	; (10000d44 <ConsumePacket.part.0+0x250>)
10000c3e:	2001      	movs	r0, #1
10000c40:	701a      	strb	r2, [r3, #0]
10000c42:	e762      	b.n	10000b0a <ConsumePacket.part.0+0x16>
10000c44:	7801      	ldrb	r1, [r0, #0]
10000c46:	290d      	cmp	r1, #13
10000c48:	d900      	bls.n	10000c4c <ConsumePacket.part.0+0x158>
10000c4a:	e75d      	b.n	10000b08 <ConsumePacket.part.0+0x14>
10000c4c:	4c46      	ldr	r4, [pc, #280]	; (10000d68 <ConsumePacket.part.0+0x274>)
10000c4e:	0089      	lsls	r1, r1, #2
10000c50:	5861      	ldr	r1, [r4, r1]
10000c52:	468f      	mov	pc, r1
10000c54:	2b01      	cmp	r3, #1
10000c56:	d800      	bhi.n	10000c5a <ConsumePacket.part.0+0x166>
10000c58:	e756      	b.n	10000b08 <ConsumePacket.part.0+0x14>
10000c5a:	2201      	movs	r2, #1
10000c5c:	6883      	ldr	r3, [r0, #8]
10000c5e:	4943      	ldr	r1, [pc, #268]	; (10000d6c <ConsumePacket.part.0+0x278>)
10000c60:	ba1b      	rev	r3, r3
10000c62:	041b      	lsls	r3, r3, #16
10000c64:	0cdb      	lsrs	r3, r3, #19
10000c66:	409a      	lsls	r2, r3
10000c68:	0013      	movs	r3, r2
10000c6a:	680a      	ldr	r2, [r1, #0]
10000c6c:	2001      	movs	r0, #1
10000c6e:	4313      	orrs	r3, r2
10000c70:	2200      	movs	r2, #0
10000c72:	600b      	str	r3, [r1, #0]
10000c74:	4b3e      	ldr	r3, [pc, #248]	; (10000d70 <ConsumePacket.part.0+0x27c>)
10000c76:	601a      	str	r2, [r3, #0]
10000c78:	4b32      	ldr	r3, [pc, #200]	; (10000d44 <ConsumePacket.part.0+0x250>)
10000c7a:	3208      	adds	r2, #8
10000c7c:	701a      	strb	r2, [r3, #0]
10000c7e:	e744      	b.n	10000b0a <ConsumePacket.part.0+0x16>
10000c80:	2b01      	cmp	r3, #1
10000c82:	d800      	bhi.n	10000c86 <ConsumePacket.part.0+0x192>
10000c84:	e740      	b.n	10000b08 <ConsumePacket.part.0+0x14>
10000c86:	2480      	movs	r4, #128	; 0x80
10000c88:	6841      	ldr	r1, [r0, #4]
10000c8a:	04a4      	lsls	r4, r4, #18
10000c8c:	42a1      	cmp	r1, r4
10000c8e:	d047      	beq.n	10000d20 <ConsumePacket.part.0+0x22c>
10000c90:	2380      	movs	r3, #128	; 0x80
10000c92:	04db      	lsls	r3, r3, #19
10000c94:	4299      	cmp	r1, r3
10000c96:	d000      	beq.n	10000c9a <ConsumePacket.part.0+0x1a6>
10000c98:	e736      	b.n	10000b08 <ConsumePacket.part.0+0x14>
10000c9a:	6883      	ldr	r3, [r0, #8]
10000c9c:	2b00      	cmp	r3, #0
10000c9e:	d047      	beq.n	10000d30 <ConsumePacket.part.0+0x23c>
10000ca0:	2280      	movs	r2, #128	; 0x80
10000ca2:	0552      	lsls	r2, r2, #21
10000ca4:	4293      	cmp	r3, r2
10000ca6:	d000      	beq.n	10000caa <ConsumePacket.part.0+0x1b6>
10000ca8:	e72e      	b.n	10000b08 <ConsumePacket.part.0+0x14>
10000caa:	2001      	movs	r0, #1
10000cac:	2208      	movs	r2, #8
10000cae:	4b31      	ldr	r3, [pc, #196]	; (10000d74 <ConsumePacket.part.0+0x280>)
10000cb0:	7018      	strb	r0, [r3, #0]
10000cb2:	4b24      	ldr	r3, [pc, #144]	; (10000d44 <ConsumePacket.part.0+0x250>)
10000cb4:	701a      	strb	r2, [r3, #0]
10000cb6:	e728      	b.n	10000b0a <ConsumePacket.part.0+0x16>
10000cb8:	2b01      	cmp	r3, #1
10000cba:	d800      	bhi.n	10000cbe <ConsumePacket.part.0+0x1ca>
10000cbc:	e724      	b.n	10000b08 <ConsumePacket.part.0+0x14>
10000cbe:	6883      	ldr	r3, [r0, #8]
10000cc0:	4a28      	ldr	r2, [pc, #160]	; (10000d64 <ConsumePacket.part.0+0x270>)
10000cc2:	ba1b      	rev	r3, r3
10000cc4:	6013      	str	r3, [r2, #0]
10000cc6:	2209      	movs	r2, #9
10000cc8:	4b1e      	ldr	r3, [pc, #120]	; (10000d44 <ConsumePacket.part.0+0x250>)
10000cca:	2001      	movs	r0, #1
10000ccc:	701a      	strb	r2, [r3, #0]
10000cce:	e71c      	b.n	10000b0a <ConsumePacket.part.0+0x16>
10000cd0:	2b01      	cmp	r3, #1
10000cd2:	d800      	bhi.n	10000cd6 <ConsumePacket.part.0+0x1e2>
10000cd4:	e718      	b.n	10000b08 <ConsumePacket.part.0+0x14>
10000cd6:	2280      	movs	r2, #128	; 0x80
10000cd8:	6843      	ldr	r3, [r0, #4]
10000cda:	0492      	lsls	r2, r2, #18
10000cdc:	4293      	cmp	r3, r2
10000cde:	d016      	beq.n	10000d0e <ConsumePacket.part.0+0x21a>
10000ce0:	2280      	movs	r2, #128	; 0x80
10000ce2:	04d2      	lsls	r2, r2, #19
10000ce4:	4293      	cmp	r3, r2
10000ce6:	d000      	beq.n	10000cea <ConsumePacket.part.0+0x1f6>
10000ce8:	e70e      	b.n	10000b08 <ConsumePacket.part.0+0x14>
10000cea:	6883      	ldr	r3, [r0, #8]
10000cec:	2b00      	cmp	r3, #0
10000cee:	d000      	beq.n	10000cf2 <ConsumePacket.part.0+0x1fe>
10000cf0:	e70a      	b.n	10000b08 <ConsumePacket.part.0+0x14>
10000cf2:	2205      	movs	r2, #5
10000cf4:	4b13      	ldr	r3, [pc, #76]	; (10000d44 <ConsumePacket.part.0+0x250>)
10000cf6:	2001      	movs	r0, #1
10000cf8:	701a      	strb	r2, [r3, #0]
10000cfa:	e706      	b.n	10000b0a <ConsumePacket.part.0+0x16>
10000cfc:	425a      	negs	r2, r3
10000cfe:	4153      	adcs	r3, r2
10000d00:	b2d8      	uxtb	r0, r3
10000d02:	e702      	b.n	10000b0a <ConsumePacket.part.0+0x16>
10000d04:	2203      	movs	r2, #3
10000d06:	4b0f      	ldr	r3, [pc, #60]	; (10000d44 <ConsumePacket.part.0+0x250>)
10000d08:	2001      	movs	r0, #1
10000d0a:	701a      	strb	r2, [r3, #0]
10000d0c:	e6fd      	b.n	10000b0a <ConsumePacket.part.0+0x16>
10000d0e:	6883      	ldr	r3, [r0, #8]
10000d10:	2b00      	cmp	r3, #0
10000d12:	d000      	beq.n	10000d16 <ConsumePacket.part.0+0x222>
10000d14:	e6f8      	b.n	10000b08 <ConsumePacket.part.0+0x14>
10000d16:	2204      	movs	r2, #4
10000d18:	4b0a      	ldr	r3, [pc, #40]	; (10000d44 <ConsumePacket.part.0+0x250>)
10000d1a:	2001      	movs	r0, #1
10000d1c:	701a      	strb	r2, [r3, #0]
10000d1e:	e6f4      	b.n	10000b0a <ConsumePacket.part.0+0x16>
10000d20:	6880      	ldr	r0, [r0, #8]
10000d22:	490e      	ldr	r1, [pc, #56]	; (10000d5c <ConsumePacket.part.0+0x268>)
10000d24:	ba00      	rev	r0, r0
10000d26:	1e9a      	subs	r2, r3, #2
10000d28:	f7ff fec2 	bl	10000ab0 <BlockWrite>
10000d2c:	2001      	movs	r0, #1
10000d2e:	e6ec      	b.n	10000b0a <ConsumePacket.part.0+0x16>
10000d30:	490a      	ldr	r1, [pc, #40]	; (10000d5c <ConsumePacket.part.0+0x268>)
10000d32:	3a0c      	subs	r2, #12
10000d34:	4810      	ldr	r0, [pc, #64]	; (10000d78 <ConsumePacket.part.0+0x284>)
10000d36:	f003 fd21 	bl	1000477c <__wrap___aeabi_memcpy>
10000d3a:	e7b6      	b.n	10000caa <ConsumePacket.part.0+0x1b6>
10000d3c:	200260f4 	.word	0x200260f4
10000d40:	100052c8 	.word	0x100052c8
10000d44:	2002abbf 	.word	0x2002abbf
10000d48:	2002abc5 	.word	0x2002abc5
10000d4c:	2002abc9 	.word	0x2002abc9
10000d50:	2002abc6 	.word	0x2002abc6
10000d54:	2002abc7 	.word	0x2002abc7
10000d58:	2002abca 	.word	0x2002abca
10000d5c:	20026100 	.word	0x20026100
10000d60:	20000f58 	.word	0x20000f58
10000d64:	20000508 	.word	0x20000508
10000d68:	10005304 	.word	0x10005304
10000d6c:	20027524 	.word	0x20027524
10000d70:	20000504 	.word	0x20000504
10000d74:	2002abbe 	.word	0x2002abbe
10000d78:	20000ff0 	.word	0x20000ff0

10000d7c <SetupButtons>:
10000d7c:	2348      	movs	r3, #72	; 0x48
10000d7e:	b5f0      	push	{r4, r5, r6, r7, lr}
10000d80:	46c6      	mov	lr, r8
10000d82:	26d0      	movs	r6, #208	; 0xd0
10000d84:	4698      	mov	r8, r3
10000d86:	2701      	movs	r7, #1
10000d88:	b500      	push	{lr}
10000d8a:	4c0a      	ldr	r4, [pc, #40]	; (10000db4 <SetupButtons+0x38>)
10000d8c:	0636      	lsls	r6, r6, #24
10000d8e:	44a0      	add	r8, r4
10000d90:	6825      	ldr	r5, [r4, #0]
10000d92:	3408      	adds	r4, #8
10000d94:	0028      	movs	r0, r5
10000d96:	f001 fcd7 	bl	10002748 <gpio_init>
10000d9a:	003b      	movs	r3, r7
10000d9c:	40ab      	lsls	r3, r5
10000d9e:	2200      	movs	r2, #0
10000da0:	2101      	movs	r1, #1
10000da2:	0028      	movs	r0, r5
10000da4:	62b3      	str	r3, [r6, #40]	; 0x28
10000da6:	f001 fc59 	bl	1000265c <gpio_set_pulls>
10000daa:	4544      	cmp	r4, r8
10000dac:	d1f0      	bne.n	10000d90 <SetupButtons+0x14>
10000dae:	bc80      	pop	{r7}
10000db0:	46b8      	mov	r8, r7
10000db2:	bdf0      	pop	{r4, r5, r6, r7, pc}
10000db4:	1000536c 	.word	0x1000536c

10000db8 <SetupMapleTX>:
10000db8:	b5f0      	push	{r4, r5, r6, r7, lr}
10000dba:	4d31      	ldr	r5, [pc, #196]	; (10000e80 <SetupMapleTX+0xc8>)
10000dbc:	b085      	sub	sp, #20
10000dbe:	2101      	movs	r1, #1
10000dc0:	0028      	movs	r0, r5
10000dc2:	f003 ff03 	bl	10004bcc <pio_claim_unused_sm>
10000dc6:	492f      	ldr	r1, [pc, #188]	; (10000e84 <SetupMapleTX+0xcc>)
10000dc8:	0004      	movs	r4, r0
10000dca:	0028      	movs	r0, r5
10000dcc:	f003 ff1c 	bl	10004c08 <pio_add_program>
10000dd0:	0003      	movs	r3, r0
10000dd2:	331c      	adds	r3, #28
10000dd4:	01c2      	lsls	r2, r0, #7
10000dd6:	031b      	lsls	r3, r3, #12
10000dd8:	4313      	orrs	r3, r2
10000dda:	4a2b      	ldr	r2, [pc, #172]	; (10000e88 <SetupMapleTX+0xd0>)
10000ddc:	27c0      	movs	r7, #192	; 0xc0
10000dde:	4013      	ands	r3, r2
10000de0:	9301      	str	r3, [sp, #4]
10000de2:	4b2a      	ldr	r3, [pc, #168]	; (10000e8c <SetupMapleTX+0xd4>)
10000de4:	0006      	movs	r6, r0
10000de6:	9303      	str	r3, [sp, #12]
10000de8:	23c0      	movs	r3, #192	; 0xc0
10000dea:	029b      	lsls	r3, r3, #10
10000dec:	9300      	str	r3, [sp, #0]
10000dee:	4b28      	ldr	r3, [pc, #160]	; (10000e90 <SetupMapleTX+0xd8>)
10000df0:	017f      	lsls	r7, r7, #5
10000df2:	003a      	movs	r2, r7
10000df4:	0021      	movs	r1, r4
10000df6:	0028      	movs	r0, r5
10000df8:	9302      	str	r3, [sp, #8]
10000dfa:	003b      	movs	r3, r7
10000dfc:	f003 ff68 	bl	10004cd0 <pio_sm_set_pins_with_mask>
10000e00:	003b      	movs	r3, r7
10000e02:	2200      	movs	r2, #0
10000e04:	0021      	movs	r1, r4
10000e06:	0028      	movs	r0, r5
10000e08:	f003 ffa4 	bl	10004d54 <pio_sm_set_pindirs_with_mask>
10000e0c:	2106      	movs	r1, #6
10000e0e:	200b      	movs	r0, #11
10000e10:	f001 fc0c 	bl	1000262c <gpio_set_function>
10000e14:	2106      	movs	r1, #6
10000e16:	200c      	movs	r0, #12
10000e18:	f001 fc08 	bl	1000262c <gpio_set_function>
10000e1c:	0021      	movs	r1, r4
10000e1e:	466b      	mov	r3, sp
10000e20:	0032      	movs	r2, r6
10000e22:	0028      	movs	r0, r5
10000e24:	f004 f81c 	bl	10004e60 <pio_sm_init>
10000e28:	2301      	movs	r3, #1
10000e2a:	40a3      	lsls	r3, r4
10000e2c:	682a      	ldr	r2, [r5, #0]
10000e2e:	2001      	movs	r0, #1
10000e30:	4313      	orrs	r3, r2
10000e32:	602b      	str	r3, [r5, #0]
10000e34:	f004 f85c 	bl	10004ef0 <dma_claim_unused_channel>
10000e38:	21a0      	movs	r1, #160	; 0xa0
10000e3a:	4b16      	ldr	r3, [pc, #88]	; (10000e94 <SetupMapleTX+0xdc>)
10000e3c:	02c2      	lsls	r2, r0, #11
10000e3e:	6018      	str	r0, [r3, #0]
10000e40:	4b15      	ldr	r3, [pc, #84]	; (10000e98 <SetupMapleTX+0xe0>)
10000e42:	05c9      	lsls	r1, r1, #23
10000e44:	401a      	ands	r2, r3
10000e46:	03e3      	lsls	r3, r4, #15
10000e48:	431a      	orrs	r2, r3
10000e4a:	2319      	movs	r3, #25
10000e4c:	468c      	mov	ip, r1
10000e4e:	431a      	orrs	r2, r3
10000e50:	0183      	lsls	r3, r0, #6
10000e52:	4812      	ldr	r0, [pc, #72]	; (10000e9c <SetupMapleTX+0xe4>)
10000e54:	4463      	add	r3, ip
10000e56:	4684      	mov	ip, r0
10000e58:	2100      	movs	r1, #0
10000e5a:	00a4      	lsls	r4, r4, #2
10000e5c:	4464      	add	r4, ip
10000e5e:	6019      	str	r1, [r3, #0]
10000e60:	200b      	movs	r0, #11
10000e62:	605c      	str	r4, [r3, #4]
10000e64:	6099      	str	r1, [r3, #8]
10000e66:	611a      	str	r2, [r3, #16]
10000e68:	3101      	adds	r1, #1
10000e6a:	2200      	movs	r2, #0
10000e6c:	f001 fbf6 	bl	1000265c <gpio_set_pulls>
10000e70:	2200      	movs	r2, #0
10000e72:	2101      	movs	r1, #1
10000e74:	200c      	movs	r0, #12
10000e76:	f001 fbf1 	bl	1000265c <gpio_set_pulls>
10000e7a:	b005      	add	sp, #20
10000e7c:	bdf0      	pop	{r4, r5, r6, r7, pc}
10000e7e:	46c0      	nop			; (mov r8, r8)
10000e80:	50200000 	.word	0x50200000
10000e84:	100053e0 	.word	0x100053e0
10000e88:	9fffffff 	.word	0x9fffffff
10000e8c:	2810316b 	.word	0x2810316b
10000e90:	40060000 	.word	0x40060000
10000e94:	200279ec 	.word	0x200279ec
10000e98:	ff007fff 	.word	0xff007fff
10000e9c:	50200010 	.word	0x50200010

10000ea0 <SetupMapleRX>:
10000ea0:	b5f0      	push	{r4, r5, r6, r7, lr}
10000ea2:	46d6      	mov	lr, sl
10000ea4:	464f      	mov	r7, r9
10000ea6:	4646      	mov	r6, r8
10000ea8:	b5c0      	push	{r6, r7, lr}
10000eaa:	494f      	ldr	r1, [pc, #316]	; (10000fe8 <SetupMapleRX+0x148>)
10000eac:	b090      	sub	sp, #64	; 0x40
10000eae:	484f      	ldr	r0, [pc, #316]	; (10000fec <SetupMapleRX+0x14c>)
10000eb0:	f003 feaa 	bl	10004c08 <pio_add_program>
10000eb4:	494e      	ldr	r1, [pc, #312]	; (10000ff0 <SetupMapleRX+0x150>)
10000eb6:	0004      	movs	r4, r0
10000eb8:	9005      	str	r0, [sp, #20]
10000eba:	484c      	ldr	r0, [pc, #304]	; (10000fec <SetupMapleRX+0x14c>)
10000ebc:	f003 fea4 	bl	10004c08 <pio_add_program>
10000ec0:	494c      	ldr	r1, [pc, #304]	; (10000ff4 <SetupMapleRX+0x154>)
10000ec2:	0005      	movs	r5, r0
10000ec4:	9006      	str	r0, [sp, #24]
10000ec6:	4849      	ldr	r0, [pc, #292]	; (10000fec <SetupMapleRX+0x14c>)
10000ec8:	f003 fe9e 	bl	10004c08 <pio_add_program>
10000ecc:	1cc7      	adds	r7, r0, #3
10000ece:	9007      	str	r0, [sp, #28]
10000ed0:	033f      	lsls	r7, r7, #12
10000ed2:	01c0      	lsls	r0, r0, #7
10000ed4:	4307      	orrs	r7, r0
10000ed6:	1ce8      	adds	r0, r5, #3
10000ed8:	0300      	lsls	r0, r0, #12
10000eda:	01ed      	lsls	r5, r5, #7
10000edc:	4328      	orrs	r0, r5
10000ede:	4682      	mov	sl, r0
10000ee0:	1c60      	adds	r0, r4, #1
10000ee2:	0300      	lsls	r0, r0, #12
10000ee4:	01e4      	lsls	r4, r4, #7
10000ee6:	4320      	orrs	r0, r4
10000ee8:	46b8      	mov	r8, r7
10000eea:	4681      	mov	r9, r0
10000eec:	2400      	movs	r4, #0
10000eee:	2700      	movs	r7, #0
10000ef0:	4d3e      	ldr	r5, [pc, #248]	; (10000fec <SetupMapleRX+0x14c>)
10000ef2:	ae05      	add	r6, sp, #20
10000ef4:	2302      	movs	r3, #2
10000ef6:	220b      	movs	r2, #11
10000ef8:	0021      	movs	r1, r4
10000efa:	483c      	ldr	r0, [pc, #240]	; (10000fec <SetupMapleRX+0x14c>)
10000efc:	9700      	str	r7, [sp, #0]
10000efe:	f003 ff6d 	bl	10004ddc <pio_sm_set_consecutive_pindirs>
10000f02:	2c00      	cmp	r4, #0
10000f04:	d03c      	beq.n	10000f80 <SetupMapleRX+0xe0>
10000f06:	2280      	movs	r2, #128	; 0x80
10000f08:	23f8      	movs	r3, #248	; 0xf8
10000f0a:	0252      	lsls	r2, r2, #9
10000f0c:	025b      	lsls	r3, r3, #9
10000f0e:	9208      	str	r2, [sp, #32]
10000f10:	9309      	str	r3, [sp, #36]	; 0x24
10000f12:	23c0      	movs	r3, #192	; 0xc0
10000f14:	031b      	lsls	r3, r3, #12
10000f16:	2210      	movs	r2, #16
10000f18:	970b      	str	r7, [sp, #44]	; 0x2c
10000f1a:	930a      	str	r3, [sp, #40]	; 0x28
10000f1c:	a908      	add	r1, sp, #32
10000f1e:	a80c      	add	r0, sp, #48	; 0x30
10000f20:	2c01      	cmp	r4, #1
10000f22:	d05d      	beq.n	10000fe0 <SetupMapleRX+0x140>
10000f24:	f003 fc2a 	bl	1000477c <__wrap___aeabi_memcpy>
10000f28:	4643      	mov	r3, r8
10000f2a:	a90c      	add	r1, sp, #48	; 0x30
10000f2c:	2210      	movs	r2, #16
10000f2e:	a808      	add	r0, sp, #32
10000f30:	930d      	str	r3, [sp, #52]	; 0x34
10000f32:	f003 fc23 	bl	1000477c <__wrap___aeabi_memcpy>
10000f36:	23b0      	movs	r3, #176	; 0xb0
10000f38:	02db      	lsls	r3, r3, #11
10000f3a:	930b      	str	r3, [sp, #44]	; 0x2c
10000f3c:	23c0      	movs	r3, #192	; 0xc0
10000f3e:	029b      	lsls	r3, r3, #10
10000f40:	9308      	str	r3, [sp, #32]
10000f42:	4b2d      	ldr	r3, [pc, #180]	; (10000ff8 <SetupMapleRX+0x158>)
10000f44:	6832      	ldr	r2, [r6, #0]
10000f46:	2102      	movs	r1, #2
10000f48:	930a      	str	r3, [sp, #40]	; 0x28
10000f4a:	4828      	ldr	r0, [pc, #160]	; (10000fec <SetupMapleRX+0x14c>)
10000f4c:	ab08      	add	r3, sp, #32
10000f4e:	f003 ff87 	bl	10004e60 <pio_sm_init>
10000f52:	f003 fdad 	bl	10004ab0 <multicore_fifo_pop_blocking>
10000f56:	2000      	movs	r0, #0
10000f58:	f003 fda0 	bl	10004a9c <multicore_fifo_push_blocking>
10000f5c:	2202      	movs	r2, #2
10000f5e:	682b      	ldr	r3, [r5, #0]
10000f60:	4313      	orrs	r3, r2
10000f62:	602b      	str	r3, [r5, #0]
10000f64:	682b      	ldr	r3, [r5, #0]
10000f66:	3202      	adds	r2, #2
10000f68:	4313      	orrs	r3, r2
10000f6a:	602b      	str	r3, [r5, #0]
10000f6c:	682b      	ldr	r3, [r5, #0]
10000f6e:	3a03      	subs	r2, #3
10000f70:	4313      	orrs	r3, r2
10000f72:	602b      	str	r3, [r5, #0]
10000f74:	b010      	add	sp, #64	; 0x40
10000f76:	bce0      	pop	{r5, r6, r7}
10000f78:	46ba      	mov	sl, r7
10000f7a:	46b1      	mov	r9, r6
10000f7c:	46a8      	mov	r8, r5
10000f7e:	bdf0      	pop	{r4, r5, r6, r7, pc}
10000f80:	2280      	movs	r2, #128	; 0x80
10000f82:	23f8      	movs	r3, #248	; 0xf8
10000f84:	0252      	lsls	r2, r2, #9
10000f86:	025b      	lsls	r3, r3, #9
10000f88:	9208      	str	r2, [sp, #32]
10000f8a:	9309      	str	r3, [sp, #36]	; 0x24
10000f8c:	23c0      	movs	r3, #192	; 0xc0
10000f8e:	2210      	movs	r2, #16
10000f90:	031b      	lsls	r3, r3, #12
10000f92:	a908      	add	r1, sp, #32
10000f94:	a80c      	add	r0, sp, #48	; 0x30
10000f96:	930a      	str	r3, [sp, #40]	; 0x28
10000f98:	940b      	str	r4, [sp, #44]	; 0x2c
10000f9a:	f003 fbef 	bl	1000477c <__wrap___aeabi_memcpy>
10000f9e:	464b      	mov	r3, r9
10000fa0:	2210      	movs	r2, #16
10000fa2:	a90c      	add	r1, sp, #48	; 0x30
10000fa4:	a808      	add	r0, sp, #32
10000fa6:	930d      	str	r3, [sp, #52]	; 0x34
10000fa8:	f003 fbe8 	bl	1000477c <__wrap___aeabi_memcpy>
10000fac:	9b0b      	ldr	r3, [sp, #44]	; 0x2c
10000fae:	4a13      	ldr	r2, [pc, #76]	; (10000ffc <SetupMapleRX+0x15c>)
10000fb0:	0021      	movs	r1, r4
10000fb2:	401a      	ands	r2, r3
10000fb4:	23b0      	movs	r3, #176	; 0xb0
10000fb6:	02db      	lsls	r3, r3, #11
10000fb8:	4313      	orrs	r3, r2
10000fba:	930b      	str	r3, [sp, #44]	; 0x2c
10000fbc:	9b0a      	ldr	r3, [sp, #40]	; 0x28
10000fbe:	4a10      	ldr	r2, [pc, #64]	; (10001000 <SetupMapleRX+0x160>)
10000fc0:	9303      	str	r3, [sp, #12]
10000fc2:	23c0      	movs	r3, #192	; 0xc0
10000fc4:	029b      	lsls	r3, r3, #10
10000fc6:	9308      	str	r3, [sp, #32]
10000fc8:	9b03      	ldr	r3, [sp, #12]
10000fca:	4808      	ldr	r0, [pc, #32]	; (10000fec <SetupMapleRX+0x14c>)
10000fcc:	401a      	ands	r2, r3
10000fce:	4b0d      	ldr	r3, [pc, #52]	; (10001004 <SetupMapleRX+0x164>)
10000fd0:	3401      	adds	r4, #1
10000fd2:	4313      	orrs	r3, r2
10000fd4:	930a      	str	r3, [sp, #40]	; 0x28
10000fd6:	ce04      	ldmia	r6!, {r2}
10000fd8:	ab08      	add	r3, sp, #32
10000fda:	f003 ff41 	bl	10004e60 <pio_sm_init>
10000fde:	e789      	b.n	10000ef4 <SetupMapleRX+0x54>
10000fe0:	f003 fbcc 	bl	1000477c <__wrap___aeabi_memcpy>
10000fe4:	4653      	mov	r3, sl
10000fe6:	e7db      	b.n	10000fa0 <SetupMapleRX+0x100>
10000fe8:	100053b4 	.word	0x100053b4
10000fec:	50300000 	.word	0x50300000
10000ff0:	100053c0 	.word	0x100053c0
10000ff4:	100053d0 	.word	0x100053d0
10000ff8:	80890000 	.word	0x80890000
10000ffc:	fff07fff 	.word	0xfff07fff
10001000:	3e0affff 	.word	0x3e0affff
10001004:	80810000 	.word	0x80810000

10001008 <readFlash>:
10001008:	b570      	push	{r4, r5, r6, lr}
1000100a:	2580      	movs	r5, #128	; 0x80
1000100c:	4c0b      	ldr	r4, [pc, #44]	; (1000103c <readFlash+0x34>)
1000100e:	02ad      	lsls	r5, r5, #10
10001010:	002a      	movs	r2, r5
10001012:	2100      	movs	r1, #0
10001014:	0020      	movs	r0, r4
10001016:	f003 fbab 	bl	10004770 <__wrap_memset>
1000101a:	4b09      	ldr	r3, [pc, #36]	; (10001040 <readFlash+0x38>)
1000101c:	002a      	movs	r2, r5
1000101e:	6819      	ldr	r1, [r3, #0]
10001020:	2380      	movs	r3, #128	; 0x80
10001022:	055b      	lsls	r3, r3, #21
10001024:	469c      	mov	ip, r3
10001026:	0449      	lsls	r1, r1, #17
10001028:	4461      	add	r1, ip
1000102a:	0020      	movs	r0, r4
1000102c:	f003 fba6 	bl	1000477c <__wrap___aeabi_memcpy>
10001030:	0020      	movs	r0, r4
10001032:	f000 ffd7 	bl	10001fe4 <CheckFormatted>
10001036:	4b03      	ldr	r3, [pc, #12]	; (10001044 <readFlash+0x3c>)
10001038:	6018      	str	r0, [r3, #0]
1000103a:	bd70      	pop	{r4, r5, r6, pc}
1000103c:	200060c4 	.word	0x200060c4
10001040:	20000500 	.word	0x20000500
10001044:	20027524 	.word	0x20027524

10001048 <main>:
10001048:	b5f0      	push	{r4, r5, r6, r7, lr}
1000104a:	46de      	mov	lr, fp
1000104c:	464e      	mov	r6, r9
1000104e:	4645      	mov	r5, r8
10001050:	4657      	mov	r7, sl
10001052:	2400      	movs	r4, #0
10001054:	b5e0      	push	{r5, r6, r7, lr}
10001056:	b08f      	sub	sp, #60	; 0x3c
10001058:	f003 fcae 	bl	100049b8 <stdio_init_all>
1000105c:	f003 fd9a 	bl	10004b94 <adc_init>
10001060:	4bc9      	ldr	r3, [pc, #804]	; (10001388 <main+0x340>)
10001062:	201a      	movs	r0, #26
10001064:	611c      	str	r4, [r3, #16]
10001066:	f7ff f9ef 	bl	10000448 <adc_gpio_init>
1000106a:	201b      	movs	r0, #27
1000106c:	f7ff f9ec 	bl	10000448 <adc_gpio_init>
10001070:	4dc6      	ldr	r5, [pc, #792]	; (1000138c <main+0x344>)
10001072:	201c      	movs	r0, #28
10001074:	f7ff f9e8 	bl	10000448 <adc_gpio_init>
10001078:	201d      	movs	r0, #29
1000107a:	f7ff f9e5 	bl	10000448 <adc_gpio_init>
1000107e:	0028      	movs	r0, r5
10001080:	49c3      	ldr	r1, [pc, #780]	; (10001390 <main+0x348>)
10001082:	f003 ffad 	bl	10004fe0 <spi_init>
10001086:	23c7      	movs	r3, #199	; 0xc7
10001088:	682a      	ldr	r2, [r5, #0]
1000108a:	2101      	movs	r1, #1
1000108c:	4053      	eors	r3, r2
1000108e:	22cf      	movs	r2, #207	; 0xcf
10001090:	401a      	ands	r2, r3
10001092:	2380      	movs	r3, #128	; 0x80
10001094:	015b      	lsls	r3, r3, #5
10001096:	432b      	orrs	r3, r5
10001098:	601a      	str	r2, [r3, #0]
1000109a:	2002      	movs	r0, #2
1000109c:	f001 fac6 	bl	1000262c <gpio_set_function>
100010a0:	2101      	movs	r1, #1
100010a2:	2003      	movs	r0, #3
100010a4:	f001 fac2 	bl	1000262c <gpio_set_function>
100010a8:	f001 f8c4 	bl	10002234 <ssd1331_init>
100010ac:	2014      	movs	r0, #20
100010ae:	f001 fb4b 	bl	10002748 <gpio_init>
100010b2:	25d0      	movs	r5, #208	; 0xd0
100010b4:	2380      	movs	r3, #128	; 0x80
100010b6:	062d      	lsls	r5, r5, #24
100010b8:	035b      	lsls	r3, r3, #13
100010ba:	2200      	movs	r2, #0
100010bc:	2101      	movs	r1, #1
100010be:	62ab      	str	r3, [r5, #40]	; 0x28
100010c0:	2014      	movs	r0, #20
100010c2:	f001 facb 	bl	1000265c <gpio_set_pulls>
100010c6:	2012      	movs	r0, #18
100010c8:	f001 fb3e 	bl	10002748 <gpio_init>
100010cc:	2380      	movs	r3, #128	; 0x80
100010ce:	2601      	movs	r6, #1
100010d0:	02db      	lsls	r3, r3, #11
100010d2:	2200      	movs	r2, #0
100010d4:	2101      	movs	r1, #1
100010d6:	2012      	movs	r0, #18
100010d8:	62ab      	str	r3, [r5, #40]	; 0x28
100010da:	f001 fabf 	bl	1000265c <gpio_set_pulls>
100010de:	4bad      	ldr	r3, [pc, #692]	; (10001394 <main+0x34c>)
100010e0:	2104      	movs	r1, #4
100010e2:	200f      	movs	r0, #15
100010e4:	4699      	mov	r9, r3
100010e6:	701e      	strb	r6, [r3, #0]
100010e8:	f001 faa0 	bl	1000262c <gpio_set_function>
100010ec:	228c      	movs	r2, #140	; 0x8c
100010ee:	2194      	movs	r1, #148	; 0x94
100010f0:	4ba9      	ldr	r3, [pc, #676]	; (10001398 <main+0x350>)
100010f2:	48aa      	ldr	r0, [pc, #680]	; (1000139c <main+0x354>)
100010f4:	509c      	str	r4, [r3, r2]
100010f6:	505c      	str	r4, [r3, r1]
100010f8:	3104      	adds	r1, #4
100010fa:	505c      	str	r4, [r3, r1]
100010fc:	3104      	adds	r1, #4
100010fe:	5058      	str	r0, [r3, r1]
10001100:	2080      	movs	r0, #128	; 0x80
10001102:	390c      	subs	r1, #12
10001104:	0040      	lsls	r0, r0, #1
10001106:	5058      	str	r0, [r3, r1]
10001108:	509e      	str	r6, [r3, r2]
1000110a:	4ba5      	ldr	r3, [pc, #660]	; (100013a0 <main+0x358>)
1000110c:	4aa5      	ldr	r2, [pc, #660]	; (100013a4 <main+0x35c>)
1000110e:	681b      	ldr	r3, [r3, #0]
10001110:	0c1b      	lsrs	r3, r3, #16
10001112:	041b      	lsls	r3, r3, #16
10001114:	6013      	str	r3, [r2, #0]
10001116:	f001 feb1 	bl	10002e7c <alarm_pool_get_default>
1000111a:	22fa      	movs	r2, #250	; 0xfa
1000111c:	ab08      	add	r3, sp, #32
1000111e:	9302      	str	r3, [sp, #8]
10001120:	4ba1      	ldr	r3, [pc, #644]	; (100013a8 <main+0x360>)
10001122:	0052      	lsls	r2, r2, #1
10001124:	9300      	str	r3, [sp, #0]
10001126:	9401      	str	r4, [sp, #4]
10001128:	2300      	movs	r3, #0
1000112a:	f001 feab 	bl	10002e84 <alarm_pool_add_repeating_timer_us>
1000112e:	2015      	movs	r0, #21
10001130:	f001 fb0a 	bl	10002748 <gpio_init>
10001134:	2380      	movs	r3, #128	; 0x80
10001136:	039b      	lsls	r3, r3, #14
10001138:	2200      	movs	r2, #0
1000113a:	2101      	movs	r1, #1
1000113c:	2015      	movs	r0, #21
1000113e:	62ab      	str	r3, [r5, #40]	; 0x28
10001140:	f001 fa8c 	bl	1000265c <gpio_set_pulls>
10001144:	2201      	movs	r2, #1
10001146:	2104      	movs	r1, #4
10001148:	2015      	movs	r0, #21
1000114a:	4b98      	ldr	r3, [pc, #608]	; (100013ac <main+0x364>)
1000114c:	f001 fa9e 	bl	1000268c <gpio_set_irq_enabled_with_callback>
10001150:	f002 f88a 	bl	10003268 <time_us_64>
10001154:	2900      	cmp	r1, #0
10001156:	d100      	bne.n	1000115a <main+0x112>
10001158:	e261      	b.n	1000161e <main+0x5d6>
1000115a:	22fa      	movs	r2, #250	; 0xfa
1000115c:	2300      	movs	r3, #0
1000115e:	0092      	lsls	r2, r2, #2
10001160:	f003 f84a 	bl	100041f8 <__wrap___aeabi_uldivmod>
10001164:	24d0      	movs	r4, #208	; 0xd0
10001166:	4b92      	ldr	r3, [pc, #584]	; (100013b0 <main+0x368>)
10001168:	0624      	lsls	r4, r4, #24
1000116a:	6018      	str	r0, [r3, #0]
1000116c:	6863      	ldr	r3, [r4, #4]
1000116e:	02db      	lsls	r3, r3, #11
10001170:	d400      	bmi.n	10001174 <main+0x12c>
10001172:	e26b      	b.n	1000164c <main+0x604>
10001174:	4c8f      	ldr	r4, [pc, #572]	; (100013b4 <main+0x36c>)
10001176:	2100      	movs	r1, #0
10001178:	0020      	movs	r0, r4
1000117a:	2228      	movs	r2, #40	; 0x28
1000117c:	f003 faf8 	bl	10004770 <__wrap_memset>
10001180:	0022      	movs	r2, r4
10001182:	4b8d      	ldr	r3, [pc, #564]	; (100013b8 <main+0x370>)
10001184:	cb13      	ldmia	r3!, {r0, r1, r4}
10001186:	c213      	stmia	r2!, {r0, r1, r4}
10001188:	cb13      	ldmia	r3!, {r0, r1, r4}
1000118a:	c213      	stmia	r2!, {r0, r1, r4}
1000118c:	cb13      	ldmia	r3!, {r0, r1, r4}
1000118e:	c213      	stmia	r2!, {r0, r1, r4}
10001190:	681b      	ldr	r3, [r3, #0]
10001192:	6013      	str	r3, [r2, #0]
10001194:	f7ff ff38 	bl	10001008 <readFlash>
10001198:	4888      	ldr	r0, [pc, #544]	; (100013bc <main+0x374>)
1000119a:	f003 fcd5 	bl	10004b48 <multicore_launch_core1>
1000119e:	f7ff f963 	bl	10000468 <BuildInfoPacket>
100011a2:	f7ff fa75 	bl	10000690 <BuildControllerPacket>
100011a6:	2313      	movs	r3, #19
100011a8:	4a85      	ldr	r2, [pc, #532]	; (100013c0 <main+0x378>)
100011aa:	6013      	str	r3, [r2, #0]
100011ac:	4b85      	ldr	r3, [pc, #532]	; (100013c4 <main+0x37c>)
100011ae:	6053      	str	r3, [r2, #4]
100011b0:	4b85      	ldr	r3, [pc, #532]	; (100013c8 <main+0x380>)
100011b2:	6093      	str	r3, [r2, #8]
100011b4:	f7ff f992 	bl	100004dc <BuildSubPeripheral0InfoPacket>
100011b8:	f7ff f9ce 	bl	10000558 <BuildSubPeripheral1InfoPacket>
100011bc:	f7ff fa06 	bl	100005cc <BuildMemoryInfoPacket>
100011c0:	f7ff fa32 	bl	10000628 <BuildLCDInfoPacket>
100011c4:	f7ff fa46 	bl	10000654 <BuildPuruPuruInfoPacket>
100011c8:	f7ff fa76 	bl	100006b8 <BuildDataPacket>
100011cc:	f7ff fdd6 	bl	10000d7c <SetupButtons>
100011d0:	f7ff fdf2 	bl	10000db8 <SetupMapleTX>
100011d4:	f7ff fe64 	bl	10000ea0 <SetupMapleRX>
100011d8:	2300      	movs	r3, #0
100011da:	9306      	str	r3, [sp, #24]
100011dc:	4b7b      	ldr	r3, [pc, #492]	; (100013cc <main+0x384>)
100011de:	469b      	mov	fp, r3
100011e0:	f003 fc66 	bl	10004ab0 <multicore_fifo_pop_blocking>
100011e4:	9a06      	ldr	r2, [sp, #24]
100011e6:	497a      	ldr	r1, [pc, #488]	; (100013d0 <main+0x388>)
100011e8:	0004      	movs	r4, r0
100011ea:	0013      	movs	r3, r2
100011ec:	1a89      	subs	r1, r1, r2
100011ee:	4282      	cmp	r2, r0
100011f0:	d208      	bcs.n	10001204 <main+0x1bc>
100011f2:	051a      	lsls	r2, r3, #20
100011f4:	4877      	ldr	r0, [pc, #476]	; (100013d4 <main+0x38c>)
100011f6:	0d12      	lsrs	r2, r2, #20
100011f8:	5882      	ldr	r2, [r0, r2]
100011fa:	ba12      	rev	r2, r2
100011fc:	50ca      	str	r2, [r1, r3]
100011fe:	3304      	adds	r3, #4
10001200:	429c      	cmp	r4, r3
10001202:	d8f6      	bhi.n	100011f2 <main+0x1aa>
10001204:	9b06      	ldr	r3, [sp, #24]
10001206:	1ae0      	subs	r0, r4, r3
10001208:	2303      	movs	r3, #3
1000120a:	4003      	ands	r3, r0
1000120c:	2b01      	cmp	r3, #1
1000120e:	d101      	bne.n	10001214 <main+0x1cc>
10001210:	f7ff fc70 	bl	10000af4 <ConsumePacket.part.0>
10001214:	2303      	movs	r3, #3
10001216:	3403      	adds	r4, #3
10001218:	439c      	bics	r4, r3
1000121a:	4b6f      	ldr	r3, [pc, #444]	; (100013d8 <main+0x390>)
1000121c:	9406      	str	r4, [sp, #24]
1000121e:	781b      	ldrb	r3, [r3, #0]
10001220:	2b00      	cmp	r3, #0
10001222:	d0dd      	beq.n	100011e0 <main+0x198>
10001224:	2080      	movs	r0, #128	; 0x80
10001226:	4a6d      	ldr	r2, [pc, #436]	; (100013dc <main+0x394>)
10001228:	496d      	ldr	r1, [pc, #436]	; (100013e0 <main+0x398>)
1000122a:	6812      	ldr	r2, [r2, #0]
1000122c:	0440      	lsls	r0, r0, #17
1000122e:	9204      	str	r2, [sp, #16]
10001230:	0192      	lsls	r2, r2, #6
10001232:	1851      	adds	r1, r2, r1
10001234:	6809      	ldr	r1, [r1, #0]
10001236:	4201      	tst	r1, r0
10001238:	d11b      	bne.n	10001272 <main+0x22a>
1000123a:	2b0b      	cmp	r3, #11
1000123c:	d819      	bhi.n	10001272 <main+0x22a>
1000123e:	4969      	ldr	r1, [pc, #420]	; (100013e4 <main+0x39c>)
10001240:	009b      	lsls	r3, r3, #2
10001242:	58cb      	ldr	r3, [r1, r3]
10001244:	469f      	mov	pc, r3
10001246:	213f      	movs	r1, #63	; 0x3f
10001248:	4b61      	ldr	r3, [pc, #388]	; (100013d0 <main+0x388>)
1000124a:	4867      	ldr	r0, [pc, #412]	; (100013e8 <main+0x3a0>)
1000124c:	789b      	ldrb	r3, [r3, #2]
1000124e:	7980      	ldrb	r0, [r0, #6]
10001250:	438b      	bics	r3, r1
10001252:	b25b      	sxtb	r3, r3
10001254:	4008      	ands	r0, r1
10001256:	4c64      	ldr	r4, [pc, #400]	; (100013e8 <main+0x3a0>)
10001258:	4318      	orrs	r0, r3
1000125a:	71a0      	strb	r0, [r4, #6]
1000125c:	7960      	ldrb	r0, [r4, #5]
1000125e:	4001      	ands	r1, r0
10001260:	430b      	orrs	r3, r1
10001262:	7163      	strb	r3, [r4, #5]
10001264:	23a0      	movs	r3, #160	; 0xa0
10001266:	05db      	lsls	r3, r3, #23
10001268:	469c      	mov	ip, r3
1000126a:	2305      	movs	r3, #5
1000126c:	4462      	add	r2, ip
1000126e:	6014      	str	r4, [r2, #0]
10001270:	61d3      	str	r3, [r2, #28]
10001272:	2300      	movs	r3, #0
10001274:	4a58      	ldr	r2, [pc, #352]	; (100013d8 <main+0x390>)
10001276:	7013      	strb	r3, [r2, #0]
10001278:	e7b2      	b.n	100011e0 <main+0x198>
1000127a:	2000      	movs	r0, #0
1000127c:	f7ff fb9a 	bl	100009b4 <SendBlockReadResponsePacket>
10001280:	e7f7      	b.n	10001272 <main+0x22a>
10001282:	213f      	movs	r1, #63	; 0x3f
10001284:	4b52      	ldr	r3, [pc, #328]	; (100013d0 <main+0x388>)
10001286:	484e      	ldr	r0, [pc, #312]	; (100013c0 <main+0x378>)
10001288:	789b      	ldrb	r3, [r3, #2]
1000128a:	7980      	ldrb	r0, [r0, #6]
1000128c:	438b      	bics	r3, r1
1000128e:	4c4c      	ldr	r4, [pc, #304]	; (100013c0 <main+0x378>)
10001290:	b25b      	sxtb	r3, r3
10001292:	4008      	ands	r0, r1
10001294:	4318      	orrs	r0, r3
10001296:	71a0      	strb	r0, [r4, #6]
10001298:	7960      	ldrb	r0, [r4, #5]
1000129a:	4001      	ands	r1, r0
1000129c:	430b      	orrs	r3, r1
1000129e:	7163      	strb	r3, [r4, #5]
100012a0:	23a0      	movs	r3, #160	; 0xa0
100012a2:	05db      	lsls	r3, r3, #23
100012a4:	469c      	mov	ip, r3
100012a6:	2303      	movs	r3, #3
100012a8:	4462      	add	r2, ip
100012aa:	6014      	str	r4, [r2, #0]
100012ac:	61d3      	str	r3, [r2, #28]
100012ae:	e7e0      	b.n	10001272 <main+0x22a>
100012b0:	2001      	movs	r0, #1
100012b2:	f7ff fb7f 	bl	100009b4 <SendBlockReadResponsePacket>
100012b6:	e7dc      	b.n	10001272 <main+0x22a>
100012b8:	213f      	movs	r1, #63	; 0x3f
100012ba:	4b45      	ldr	r3, [pc, #276]	; (100013d0 <main+0x388>)
100012bc:	484b      	ldr	r0, [pc, #300]	; (100013ec <main+0x3a4>)
100012be:	789b      	ldrb	r3, [r3, #2]
100012c0:	7980      	ldrb	r0, [r0, #6]
100012c2:	438b      	bics	r3, r1
100012c4:	b25b      	sxtb	r3, r3
100012c6:	4008      	ands	r0, r1
100012c8:	4c48      	ldr	r4, [pc, #288]	; (100013ec <main+0x3a4>)
100012ca:	4318      	orrs	r0, r3
100012cc:	71a0      	strb	r0, [r4, #6]
100012ce:	7960      	ldrb	r0, [r4, #5]
100012d0:	4001      	ands	r1, r0
100012d2:	430b      	orrs	r3, r1
100012d4:	7163      	strb	r3, [r4, #5]
100012d6:	23a0      	movs	r3, #160	; 0xa0
100012d8:	05db      	lsls	r3, r3, #23
100012da:	469c      	mov	ip, r3
100012dc:	231f      	movs	r3, #31
100012de:	4462      	add	r2, ip
100012e0:	6014      	str	r4, [r2, #0]
100012e2:	61d3      	str	r3, [r2, #28]
100012e4:	e7c5      	b.n	10001272 <main+0x22a>
100012e6:	213f      	movs	r1, #63	; 0x3f
100012e8:	4b39      	ldr	r3, [pc, #228]	; (100013d0 <main+0x388>)
100012ea:	4841      	ldr	r0, [pc, #260]	; (100013f0 <main+0x3a8>)
100012ec:	789b      	ldrb	r3, [r3, #2]
100012ee:	7980      	ldrb	r0, [r0, #6]
100012f0:	438b      	bics	r3, r1
100012f2:	b25b      	sxtb	r3, r3
100012f4:	4008      	ands	r0, r1
100012f6:	4c3e      	ldr	r4, [pc, #248]	; (100013f0 <main+0x3a8>)
100012f8:	4318      	orrs	r0, r3
100012fa:	e7ae      	b.n	1000125a <main+0x212>
100012fc:	4b3d      	ldr	r3, [pc, #244]	; (100013f4 <main+0x3ac>)
100012fe:	781a      	ldrb	r2, [r3, #0]
10001300:	2323      	movs	r3, #35	; 0x23
10001302:	2a00      	cmp	r2, #0
10001304:	d003      	beq.n	1000130e <main+0x2c6>
10001306:	2300      	movs	r3, #0
10001308:	4a3a      	ldr	r2, [pc, #232]	; (100013f4 <main+0x3ac>)
1000130a:	7013      	strb	r3, [r2, #0]
1000130c:	3320      	adds	r3, #32
1000130e:	4a3a      	ldr	r2, [pc, #232]	; (100013f8 <main+0x3b0>)
10001310:	7193      	strb	r3, [r2, #6]
10001312:	f7ff f9fd 	bl	10000710 <SendControllerStatus>
10001316:	4b39      	ldr	r3, [pc, #228]	; (100013fc <main+0x3b4>)
10001318:	681c      	ldr	r4, [r3, #0]
1000131a:	2c00      	cmp	r4, #0
1000131c:	d100      	bne.n	10001320 <main+0x2d8>
1000131e:	e165      	b.n	100015ec <main+0x5a4>
10001320:	23d0      	movs	r3, #208	; 0xd0
10001322:	2501      	movs	r5, #1
10001324:	061b      	lsls	r3, r3, #24
10001326:	6d1b      	ldr	r3, [r3, #80]	; 0x50
10001328:	421d      	tst	r5, r3
1000132a:	d000      	beq.n	1000132e <main+0x2e6>
1000132c:	e171      	b.n	10001612 <main+0x5ca>
1000132e:	4b34      	ldr	r3, [pc, #208]	; (10001400 <main+0x3b8>)
10001330:	681b      	ldr	r3, [r3, #0]
10001332:	9304      	str	r3, [sp, #16]
10001334:	2b07      	cmp	r3, #7
10001336:	d900      	bls.n	1000133a <main+0x2f2>
10001338:	e308      	b.n	1000194c <main+0x904>
1000133a:	4b31      	ldr	r3, [pc, #196]	; (10001400 <main+0x3b8>)
1000133c:	681b      	ldr	r3, [r3, #0]
1000133e:	4a30      	ldr	r2, [pc, #192]	; (10001400 <main+0x3b8>)
10001340:	3301      	adds	r3, #1
10001342:	6013      	str	r3, [r2, #0]
10001344:	4b2f      	ldr	r3, [pc, #188]	; (10001404 <main+0x3bc>)
10001346:	781b      	ldrb	r3, [r3, #0]
10001348:	2b00      	cmp	r3, #0
1000134a:	d092      	beq.n	10001272 <main+0x22a>
1000134c:	4b2e      	ldr	r3, [pc, #184]	; (10001408 <main+0x3c0>)
1000134e:	9304      	str	r3, [sp, #16]
10001350:	2300      	movs	r3, #0
10001352:	9307      	str	r3, [sp, #28]
10001354:	9c07      	ldr	r4, [sp, #28]
10001356:	2106      	movs	r1, #6
10001358:	0020      	movs	r0, r4
1000135a:	f002 fee3 	bl	10004124 <__wrap___aeabi_idiv>
1000135e:	0047      	lsls	r7, r0, #1
10001360:	b2ff      	uxtb	r7, r7
10001362:	1c7b      	adds	r3, r7, #1
10001364:	0020      	movs	r0, r4
10001366:	b2db      	uxtb	r3, r3
10001368:	2106      	movs	r1, #6
1000136a:	4698      	mov	r8, r3
1000136c:	f002 feda 	bl	10004124 <__wrap___aeabi_idiv>
10001370:	00cd      	lsls	r5, r1, #3
10001372:	3507      	adds	r5, #7
10001374:	b2ed      	uxtb	r5, r5
10001376:	006c      	lsls	r4, r5, #1
10001378:	3508      	adds	r5, #8
1000137a:	3411      	adds	r4, #17
1000137c:	006d      	lsls	r5, r5, #1
1000137e:	2600      	movs	r6, #0
10001380:	46ba      	mov	sl, r7
10001382:	b2e4      	uxtb	r4, r4
10001384:	b2ed      	uxtb	r5, r5
10001386:	e08d      	b.n	100014a4 <main+0x45c>
10001388:	4004c000 	.word	0x4004c000
1000138c:	4003c000 	.word	0x4003c000
10001390:	07ed6b40 	.word	0x07ed6b40
10001394:	2000050c 	.word	0x2000050c
10001398:	40050000 	.word	0x40050000
1000139c:	0000ffff 	.word	0x0000ffff
100013a0:	40050098 	.word	0x40050098
100013a4:	40051098 	.word	0x40051098
100013a8:	1000030d 	.word	0x1000030d
100013ac:	100003f1 	.word	0x100003f1
100013b0:	20027b80 	.word	0x20027b80
100013b4:	200278cc 	.word	0x200278cc
100013b8:	10120000 	.word	0x10120000
100013bc:	200000c1 	.word	0x200000c1
100013c0:	20000f4c 	.word	0x20000f4c
100013c4:	00010007 	.word	0x00010007
100013c8:	06060707 	.word	0x06060707
100013cc:	20000500 	.word	0x20000500
100013d0:	200260f4 	.word	0x200260f4
100013d4:	20026524 	.word	0x20026524
100013d8:	2002abbf 	.word	0x2002abbf
100013dc:	200279ec 	.word	0x200279ec
100013e0:	50000010 	.word	0x50000010
100013e4:	1000533c 	.word	0x1000533c
100013e8:	200264fc 	.word	0x200264fc
100013ec:	20027970 	.word	0x20027970
100013f0:	200010b0 	.word	0x200010b0
100013f4:	2002abc1 	.word	0x2002abc1
100013f8:	20000f5c 	.word	0x20000f5c
100013fc:	20027524 	.word	0x20027524
10001400:	20000504 	.word	0x20000504
10001404:	2002abbe 	.word	0x2002abbe
10001408:	20000ff0 	.word	0x20000ff0
1000140c:	0023      	movs	r3, r4
1000140e:	3b11      	subs	r3, #17
10001410:	b2d8      	uxtb	r0, r3
10001412:	465b      	mov	r3, fp
10001414:	681b      	ldr	r3, [r3, #0]
10001416:	4a84      	ldr	r2, [pc, #528]	; (10001628 <main+0x5e0>)
10001418:	3b01      	subs	r3, #1
1000141a:	005b      	lsls	r3, r3, #1
1000141c:	5ad2      	ldrh	r2, [r2, r3]
1000141e:	464b      	mov	r3, r9
10001420:	781b      	ldrb	r3, [r3, #0]
10001422:	9005      	str	r0, [sp, #20]
10001424:	b292      	uxth	r2, r2
10001426:	2b00      	cmp	r3, #0
10001428:	d100      	bne.n	1000142c <main+0x3e4>
1000142a:	e0c7      	b.n	100015bc <main+0x574>
1000142c:	4651      	mov	r1, sl
1000142e:	f000 fead 	bl	1000218c <setPixelSSD1331>
10001432:	465b      	mov	r3, fp
10001434:	681b      	ldr	r3, [r3, #0]
10001436:	4a7c      	ldr	r2, [pc, #496]	; (10001628 <main+0x5e0>)
10001438:	3b01      	subs	r3, #1
1000143a:	005b      	lsls	r3, r3, #1
1000143c:	5ad2      	ldrh	r2, [r2, r3]
1000143e:	464b      	mov	r3, r9
10001440:	0027      	movs	r7, r4
10001442:	781b      	ldrb	r3, [r3, #0]
10001444:	3f10      	subs	r7, #16
10001446:	b2ff      	uxtb	r7, r7
10001448:	b292      	uxth	r2, r2
1000144a:	2b00      	cmp	r3, #0
1000144c:	d100      	bne.n	10001450 <main+0x408>
1000144e:	e0ad      	b.n	100015ac <main+0x564>
10001450:	4651      	mov	r1, sl
10001452:	0038      	movs	r0, r7
10001454:	f000 fe9a 	bl	1000218c <setPixelSSD1331>
10001458:	465b      	mov	r3, fp
1000145a:	681b      	ldr	r3, [r3, #0]
1000145c:	4a72      	ldr	r2, [pc, #456]	; (10001628 <main+0x5e0>)
1000145e:	3b01      	subs	r3, #1
10001460:	005b      	lsls	r3, r3, #1
10001462:	5ad2      	ldrh	r2, [r2, r3]
10001464:	464b      	mov	r3, r9
10001466:	781b      	ldrb	r3, [r3, #0]
10001468:	b292      	uxth	r2, r2
1000146a:	2b00      	cmp	r3, #0
1000146c:	d100      	bne.n	10001470 <main+0x428>
1000146e:	e095      	b.n	1000159c <main+0x554>
10001470:	4641      	mov	r1, r8
10001472:	9805      	ldr	r0, [sp, #20]
10001474:	f000 fe8a 	bl	1000218c <setPixelSSD1331>
10001478:	465b      	mov	r3, fp
1000147a:	681b      	ldr	r3, [r3, #0]
1000147c:	4a6a      	ldr	r2, [pc, #424]	; (10001628 <main+0x5e0>)
1000147e:	3b01      	subs	r3, #1
10001480:	005b      	lsls	r3, r3, #1
10001482:	5ad2      	ldrh	r2, [r2, r3]
10001484:	464b      	mov	r3, r9
10001486:	781b      	ldrb	r3, [r3, #0]
10001488:	b292      	uxth	r2, r2
1000148a:	2b00      	cmp	r3, #0
1000148c:	d07e      	beq.n	1000158c <main+0x544>
1000148e:	4641      	mov	r1, r8
10001490:	0038      	movs	r0, r7
10001492:	f000 fe7b 	bl	1000218c <setPixelSSD1331>
10001496:	3c02      	subs	r4, #2
10001498:	3d02      	subs	r5, #2
1000149a:	3601      	adds	r6, #1
1000149c:	b2e4      	uxtb	r4, r4
1000149e:	b2ed      	uxtb	r5, r5
100014a0:	2e08      	cmp	r6, #8
100014a2:	d037      	beq.n	10001514 <main+0x4cc>
100014a4:	9b04      	ldr	r3, [sp, #16]
100014a6:	2201      	movs	r2, #1
100014a8:	781b      	ldrb	r3, [r3, #0]
100014aa:	4133      	asrs	r3, r6
100014ac:	421a      	tst	r2, r3
100014ae:	d1ad      	bne.n	1000140c <main+0x3c4>
100014b0:	0023      	movs	r3, r4
100014b2:	3b11      	subs	r3, #17
100014b4:	b2d8      	uxtb	r0, r3
100014b6:	464b      	mov	r3, r9
100014b8:	781b      	ldrb	r3, [r3, #0]
100014ba:	2200      	movs	r2, #0
100014bc:	4651      	mov	r1, sl
100014be:	9005      	str	r0, [sp, #20]
100014c0:	2b00      	cmp	r3, #0
100014c2:	d100      	bne.n	100014c6 <main+0x47e>
100014c4:	e08e      	b.n	100015e4 <main+0x59c>
100014c6:	f000 fe61 	bl	1000218c <setPixelSSD1331>
100014ca:	464b      	mov	r3, r9
100014cc:	0027      	movs	r7, r4
100014ce:	781b      	ldrb	r3, [r3, #0]
100014d0:	3f10      	subs	r7, #16
100014d2:	2200      	movs	r2, #0
100014d4:	4651      	mov	r1, sl
100014d6:	b2ff      	uxtb	r7, r7
100014d8:	2b00      	cmp	r3, #0
100014da:	d07f      	beq.n	100015dc <main+0x594>
100014dc:	0038      	movs	r0, r7
100014de:	f000 fe55 	bl	1000218c <setPixelSSD1331>
100014e2:	464b      	mov	r3, r9
100014e4:	781b      	ldrb	r3, [r3, #0]
100014e6:	2200      	movs	r2, #0
100014e8:	4641      	mov	r1, r8
100014ea:	2b00      	cmp	r3, #0
100014ec:	d072      	beq.n	100015d4 <main+0x58c>
100014ee:	9805      	ldr	r0, [sp, #20]
100014f0:	f000 fe4c 	bl	1000218c <setPixelSSD1331>
100014f4:	464b      	mov	r3, r9
100014f6:	781b      	ldrb	r3, [r3, #0]
100014f8:	2200      	movs	r2, #0
100014fa:	4641      	mov	r1, r8
100014fc:	2b00      	cmp	r3, #0
100014fe:	d065      	beq.n	100015cc <main+0x584>
10001500:	0038      	movs	r0, r7
10001502:	3c02      	subs	r4, #2
10001504:	3d02      	subs	r5, #2
10001506:	3601      	adds	r6, #1
10001508:	f000 fe40 	bl	1000218c <setPixelSSD1331>
1000150c:	b2e4      	uxtb	r4, r4
1000150e:	b2ed      	uxtb	r5, r5
10001510:	2e08      	cmp	r6, #8
10001512:	d1c7      	bne.n	100014a4 <main+0x45c>
10001514:	9b07      	ldr	r3, [sp, #28]
10001516:	9a04      	ldr	r2, [sp, #16]
10001518:	3301      	adds	r3, #1
1000151a:	3201      	adds	r2, #1
1000151c:	9307      	str	r3, [sp, #28]
1000151e:	9204      	str	r2, [sp, #16]
10001520:	2bc0      	cmp	r3, #192	; 0xc0
10001522:	d000      	beq.n	10001526 <main+0x4de>
10001524:	e716      	b.n	10001354 <main+0x30c>
10001526:	f000 fe3f 	bl	100021a8 <updateSSD1331>
1000152a:	2300      	movs	r3, #0
1000152c:	4a3f      	ldr	r2, [pc, #252]	; (1000162c <main+0x5e4>)
1000152e:	7013      	strb	r3, [r2, #0]
10001530:	e69f      	b.n	10001272 <main+0x22a>
10001532:	213f      	movs	r1, #63	; 0x3f
10001534:	4b3e      	ldr	r3, [pc, #248]	; (10001630 <main+0x5e8>)
10001536:	483f      	ldr	r0, [pc, #252]	; (10001634 <main+0x5ec>)
10001538:	789b      	ldrb	r3, [r3, #2]
1000153a:	7980      	ldrb	r0, [r0, #6]
1000153c:	438b      	bics	r3, r1
1000153e:	b25b      	sxtb	r3, r3
10001540:	4008      	ands	r0, r1
10001542:	4c3c      	ldr	r4, [pc, #240]	; (10001634 <main+0x5ec>)
10001544:	4318      	orrs	r0, r3
10001546:	e6c1      	b.n	100012cc <main+0x284>
10001548:	213f      	movs	r1, #63	; 0x3f
1000154a:	4b39      	ldr	r3, [pc, #228]	; (10001630 <main+0x5e8>)
1000154c:	483a      	ldr	r0, [pc, #232]	; (10001638 <main+0x5f0>)
1000154e:	789b      	ldrb	r3, [r3, #2]
10001550:	7980      	ldrb	r0, [r0, #6]
10001552:	438b      	bics	r3, r1
10001554:	4c38      	ldr	r4, [pc, #224]	; (10001638 <main+0x5f0>)
10001556:	b25b      	sxtb	r3, r3
10001558:	4008      	ands	r0, r1
1000155a:	4318      	orrs	r0, r3
1000155c:	71a0      	strb	r0, [r4, #6]
1000155e:	7960      	ldrb	r0, [r4, #5]
10001560:	4001      	ands	r1, r0
10001562:	430b      	orrs	r3, r1
10001564:	7163      	strb	r3, [r4, #5]
10001566:	23a0      	movs	r3, #160	; 0xa0
10001568:	05db      	lsls	r3, r3, #23
1000156a:	469c      	mov	ip, r3
1000156c:	230a      	movs	r3, #10
1000156e:	4462      	add	r2, ip
10001570:	6014      	str	r4, [r2, #0]
10001572:	61d3      	str	r3, [r2, #28]
10001574:	e67d      	b.n	10001272 <main+0x22a>
10001576:	213f      	movs	r1, #63	; 0x3f
10001578:	4b2d      	ldr	r3, [pc, #180]	; (10001630 <main+0x5e8>)
1000157a:	4830      	ldr	r0, [pc, #192]	; (1000163c <main+0x5f4>)
1000157c:	789b      	ldrb	r3, [r3, #2]
1000157e:	7980      	ldrb	r0, [r0, #6]
10001580:	438b      	bics	r3, r1
10001582:	b25b      	sxtb	r3, r3
10001584:	4008      	ands	r0, r1
10001586:	4c2d      	ldr	r4, [pc, #180]	; (1000163c <main+0x5f4>)
10001588:	4318      	orrs	r0, r3
1000158a:	e69f      	b.n	100012cc <main+0x284>
1000158c:	1e53      	subs	r3, r2, #1
1000158e:	419a      	sbcs	r2, r3
10001590:	4641      	mov	r1, r8
10001592:	0020      	movs	r0, r4
10001594:	b2d2      	uxtb	r2, r2
10001596:	f000 ffed 	bl	10002574 <setPixel1306>
1000159a:	e77c      	b.n	10001496 <main+0x44e>
1000159c:	1e53      	subs	r3, r2, #1
1000159e:	419a      	sbcs	r2, r3
100015a0:	4641      	mov	r1, r8
100015a2:	0028      	movs	r0, r5
100015a4:	b2d2      	uxtb	r2, r2
100015a6:	f000 ffe5 	bl	10002574 <setPixel1306>
100015aa:	e765      	b.n	10001478 <main+0x430>
100015ac:	1e53      	subs	r3, r2, #1
100015ae:	419a      	sbcs	r2, r3
100015b0:	4651      	mov	r1, sl
100015b2:	0020      	movs	r0, r4
100015b4:	b2d2      	uxtb	r2, r2
100015b6:	f000 ffdd 	bl	10002574 <setPixel1306>
100015ba:	e74d      	b.n	10001458 <main+0x410>
100015bc:	1e53      	subs	r3, r2, #1
100015be:	419a      	sbcs	r2, r3
100015c0:	4651      	mov	r1, sl
100015c2:	0028      	movs	r0, r5
100015c4:	b2d2      	uxtb	r2, r2
100015c6:	f000 ffd5 	bl	10002574 <setPixel1306>
100015ca:	e732      	b.n	10001432 <main+0x3ea>
100015cc:	0020      	movs	r0, r4
100015ce:	f000 ffd1 	bl	10002574 <setPixel1306>
100015d2:	e760      	b.n	10001496 <main+0x44e>
100015d4:	0028      	movs	r0, r5
100015d6:	f000 ffcd 	bl	10002574 <setPixel1306>
100015da:	e78b      	b.n	100014f4 <main+0x4ac>
100015dc:	0020      	movs	r0, r4
100015de:	f000 ffc9 	bl	10002574 <setPixel1306>
100015e2:	e77e      	b.n	100014e2 <main+0x49a>
100015e4:	0028      	movs	r0, r5
100015e6:	f000 ffc5 	bl	10002574 <setPixel1306>
100015ea:	e76e      	b.n	100014ca <main+0x482>
100015ec:	4b14      	ldr	r3, [pc, #80]	; (10001640 <main+0x5f8>)
100015ee:	681b      	ldr	r3, [r3, #0]
100015f0:	9304      	str	r3, [sp, #16]
100015f2:	2b07      	cmp	r3, #7
100015f4:	d800      	bhi.n	100015f8 <main+0x5b0>
100015f6:	e6a0      	b.n	1000133a <main+0x2f2>
100015f8:	4b12      	ldr	r3, [pc, #72]	; (10001644 <main+0x5fc>)
100015fa:	781b      	ldrb	r3, [r3, #0]
100015fc:	2b00      	cmp	r3, #0
100015fe:	d100      	bne.n	10001602 <main+0x5ba>
10001600:	e6a0      	b.n	10001344 <main+0x2fc>
10001602:	f7ff fd01 	bl	10001008 <readFlash>
10001606:	4b0f      	ldr	r3, [pc, #60]	; (10001644 <main+0x5fc>)
10001608:	4a0f      	ldr	r2, [pc, #60]	; (10001648 <main+0x600>)
1000160a:	701c      	strb	r4, [r3, #0]
1000160c:	2301      	movs	r3, #1
1000160e:	7013      	strb	r3, [r2, #0]
10001610:	e698      	b.n	10001344 <main+0x2fc>
10001612:	4b0b      	ldr	r3, [pc, #44]	; (10001640 <main+0x5f8>)
10001614:	681b      	ldr	r3, [r3, #0]
10001616:	2b07      	cmp	r3, #7
10001618:	d900      	bls.n	1000161c <main+0x5d4>
1000161a:	e693      	b.n	10001344 <main+0x2fc>
1000161c:	e68f      	b.n	1000133e <main+0x2f6>
1000161e:	21fa      	movs	r1, #250	; 0xfa
10001620:	0089      	lsls	r1, r1, #2
10001622:	f002 fda7 	bl	10004174 <__wrap___aeabi_uidiv>
10001626:	e59d      	b.n	10001164 <main+0x11c>
10001628:	20000510 	.word	0x20000510
1000162c:	2002abbe 	.word	0x2002abbe
10001630:	200260f4 	.word	0x200260f4
10001634:	20000f74 	.word	0x20000f74
10001638:	200260c4 	.word	0x200260c4
1000163c:	200278f4 	.word	0x200278f4
10001640:	20000504 	.word	0x20000504
10001644:	2002abc0 	.word	0x2002abc0
10001648:	2002abc1 	.word	0x2002abc1
1000164c:	2100      	movs	r1, #0
1000164e:	2201      	movs	r2, #1
10001650:	0008      	movs	r0, r1
10001652:	f000 ff8f 	bl	10002574 <setPixel1306>
10001656:	2100      	movs	r1, #0
10001658:	4acd      	ldr	r2, [pc, #820]	; (10001990 <main+0x948>)
1000165a:	0008      	movs	r0, r1
1000165c:	f000 fd96 	bl	1000218c <setPixelSSD1331>
10001660:	f000 ff5a 	bl	10002518 <UpdateDisplay>
10001664:	2201      	movs	r2, #1
10001666:	6863      	ldr	r3, [r4, #4]
10001668:	0d1b      	lsrs	r3, r3, #20
1000166a:	421a      	tst	r2, r3
1000166c:	d0fb      	beq.n	10001666 <main+0x61e>
1000166e:	f000 ff65 	bl	1000253c <ClearDisplay>
10001672:	2201      	movs	r2, #1
10001674:	211f      	movs	r1, #31
10001676:	203f      	movs	r0, #63	; 0x3f
10001678:	f000 ff7c 	bl	10002574 <setPixel1306>
1000167c:	2100      	movs	r1, #0
1000167e:	4ac4      	ldr	r2, [pc, #784]	; (10001990 <main+0x948>)
10001680:	0008      	movs	r0, r1
10001682:	f000 fd83 	bl	1000218c <setPixelSSD1331>
10001686:	f000 ff47 	bl	10002518 <UpdateDisplay>
1000168a:	21d0      	movs	r1, #208	; 0xd0
1000168c:	2201      	movs	r2, #1
1000168e:	0609      	lsls	r1, r1, #24
10001690:	684b      	ldr	r3, [r1, #4]
10001692:	0d1b      	lsrs	r3, r3, #20
10001694:	421a      	tst	r2, r3
10001696:	d1fb      	bne.n	10001690 <main+0x648>
10001698:	21e0      	movs	r1, #224	; 0xe0
1000169a:	4bbe      	ldr	r3, [pc, #760]	; (10001994 <main+0x94c>)
1000169c:	01c9      	lsls	r1, r1, #7
1000169e:	681a      	ldr	r2, [r3, #0]
100016a0:	400a      	ands	r2, r1
100016a2:	49bd      	ldr	r1, [pc, #756]	; (10001998 <main+0x950>)
100016a4:	600a      	str	r2, [r1, #0]
100016a6:	2104      	movs	r1, #4
100016a8:	4abc      	ldr	r2, [pc, #752]	; (1000199c <main+0x954>)
100016aa:	6011      	str	r1, [r2, #0]
100016ac:	31fc      	adds	r1, #252	; 0xfc
100016ae:	681a      	ldr	r2, [r3, #0]
100016b0:	420a      	tst	r2, r1
100016b2:	d0fc      	beq.n	100016ae <main+0x666>
100016b4:	685a      	ldr	r2, [r3, #4]
100016b6:	4cba      	ldr	r4, [pc, #744]	; (100019a0 <main+0x958>)
100016b8:	b292      	uxth	r2, r2
100016ba:	0912      	lsrs	r2, r2, #4
100016bc:	6022      	str	r2, [r4, #0]
100016be:	681a      	ldr	r2, [r3, #0]
100016c0:	2380      	movs	r3, #128	; 0x80
100016c2:	015b      	lsls	r3, r3, #5
100016c4:	4053      	eors	r3, r2
100016c6:	22e0      	movs	r2, #224	; 0xe0
100016c8:	01d2      	lsls	r2, r2, #7
100016ca:	4013      	ands	r3, r2
100016cc:	4ab2      	ldr	r2, [pc, #712]	; (10001998 <main+0x950>)
100016ce:	2180      	movs	r1, #128	; 0x80
100016d0:	6013      	str	r3, [r2, #0]
100016d2:	2204      	movs	r2, #4
100016d4:	4bb1      	ldr	r3, [pc, #708]	; (1000199c <main+0x954>)
100016d6:	0049      	lsls	r1, r1, #1
100016d8:	601a      	str	r2, [r3, #0]
100016da:	4bae      	ldr	r3, [pc, #696]	; (10001994 <main+0x94c>)
100016dc:	681a      	ldr	r2, [r3, #0]
100016de:	420a      	tst	r2, r1
100016e0:	d0fc      	beq.n	100016dc <main+0x694>
100016e2:	685a      	ldr	r2, [r3, #4]
100016e4:	2180      	movs	r1, #128	; 0x80
100016e6:	b292      	uxth	r2, r2
100016e8:	0912      	lsrs	r2, r2, #4
100016ea:	60e2      	str	r2, [r4, #12]
100016ec:	681a      	ldr	r2, [r3, #0]
100016ee:	2380      	movs	r3, #128	; 0x80
100016f0:	019b      	lsls	r3, r3, #6
100016f2:	4053      	eors	r3, r2
100016f4:	22e0      	movs	r2, #224	; 0xe0
100016f6:	01d2      	lsls	r2, r2, #7
100016f8:	4013      	ands	r3, r2
100016fa:	4aa7      	ldr	r2, [pc, #668]	; (10001998 <main+0x950>)
100016fc:	0049      	lsls	r1, r1, #1
100016fe:	6013      	str	r3, [r2, #0]
10001700:	2204      	movs	r2, #4
10001702:	4ba6      	ldr	r3, [pc, #664]	; (1000199c <main+0x954>)
10001704:	601a      	str	r2, [r3, #0]
10001706:	4ba3      	ldr	r3, [pc, #652]	; (10001994 <main+0x94c>)
10001708:	681a      	ldr	r2, [r3, #0]
1000170a:	420a      	tst	r2, r1
1000170c:	d0fc      	beq.n	10001708 <main+0x6c0>
1000170e:	685a      	ldr	r2, [r3, #4]
10001710:	2180      	movs	r1, #128	; 0x80
10001712:	b292      	uxth	r2, r2
10001714:	0912      	lsrs	r2, r2, #4
10001716:	61a2      	str	r2, [r4, #24]
10001718:	681a      	ldr	r2, [r3, #0]
1000171a:	23c0      	movs	r3, #192	; 0xc0
1000171c:	019b      	lsls	r3, r3, #6
1000171e:	4053      	eors	r3, r2
10001720:	22e0      	movs	r2, #224	; 0xe0
10001722:	01d2      	lsls	r2, r2, #7
10001724:	4013      	ands	r3, r2
10001726:	4a9c      	ldr	r2, [pc, #624]	; (10001998 <main+0x950>)
10001728:	0049      	lsls	r1, r1, #1
1000172a:	6013      	str	r3, [r2, #0]
1000172c:	2204      	movs	r2, #4
1000172e:	4b9b      	ldr	r3, [pc, #620]	; (1000199c <main+0x954>)
10001730:	601a      	str	r2, [r3, #0]
10001732:	4a98      	ldr	r2, [pc, #608]	; (10001994 <main+0x94c>)
10001734:	6813      	ldr	r3, [r2, #0]
10001736:	420b      	tst	r3, r1
10001738:	d0fc      	beq.n	10001734 <main+0x6ec>
1000173a:	6853      	ldr	r3, [r2, #4]
1000173c:	b29b      	uxth	r3, r3
1000173e:	091b      	lsrs	r3, r3, #4
10001740:	6223      	str	r3, [r4, #32]
10001742:	f000 fefb 	bl	1000253c <ClearDisplay>
10001746:	2201      	movs	r2, #1
10001748:	211f      	movs	r1, #31
1000174a:	207f      	movs	r0, #127	; 0x7f
1000174c:	f000 ff12 	bl	10002574 <setPixel1306>
10001750:	f000 fee2 	bl	10002518 <UpdateDisplay>
10001754:	20fa      	movs	r0, #250	; 0xfa
10001756:	0040      	lsls	r0, r0, #1
10001758:	f001 fd02 	bl	10003160 <sleep_ms>
1000175c:	21d0      	movs	r1, #208	; 0xd0
1000175e:	2201      	movs	r2, #1
10001760:	0609      	lsls	r1, r1, #24
10001762:	684b      	ldr	r3, [r1, #4]
10001764:	0d1b      	lsrs	r3, r3, #20
10001766:	421a      	tst	r2, r3
10001768:	d1fb      	bne.n	10001762 <main+0x71a>
1000176a:	21e0      	movs	r1, #224	; 0xe0
1000176c:	4b89      	ldr	r3, [pc, #548]	; (10001994 <main+0x94c>)
1000176e:	01c9      	lsls	r1, r1, #7
10001770:	681a      	ldr	r2, [r3, #0]
10001772:	400a      	ands	r2, r1
10001774:	4988      	ldr	r1, [pc, #544]	; (10001998 <main+0x950>)
10001776:	600a      	str	r2, [r1, #0]
10001778:	2104      	movs	r1, #4
1000177a:	4a88      	ldr	r2, [pc, #544]	; (1000199c <main+0x954>)
1000177c:	6011      	str	r1, [r2, #0]
1000177e:	31fc      	adds	r1, #252	; 0xfc
10001780:	681a      	ldr	r2, [r3, #0]
10001782:	420a      	tst	r2, r1
10001784:	d0fc      	beq.n	10001780 <main+0x738>
10001786:	685b      	ldr	r3, [r3, #4]
10001788:	b29b      	uxth	r3, r3
1000178a:	091b      	lsrs	r3, r3, #4
1000178c:	6063      	str	r3, [r4, #4]
1000178e:	f000 fed5 	bl	1000253c <ClearDisplay>
10001792:	213f      	movs	r1, #63	; 0x3f
10001794:	2201      	movs	r2, #1
10001796:	0008      	movs	r0, r1
10001798:	f000 feec 	bl	10002574 <setPixel1306>
1000179c:	f000 febc 	bl	10002518 <UpdateDisplay>
100017a0:	20fa      	movs	r0, #250	; 0xfa
100017a2:	0040      	lsls	r0, r0, #1
100017a4:	f001 fcdc 	bl	10003160 <sleep_ms>
100017a8:	21d0      	movs	r1, #208	; 0xd0
100017aa:	2201      	movs	r2, #1
100017ac:	0609      	lsls	r1, r1, #24
100017ae:	684b      	ldr	r3, [r1, #4]
100017b0:	0d1b      	lsrs	r3, r3, #20
100017b2:	421a      	tst	r2, r3
100017b4:	d1fb      	bne.n	100017ae <main+0x766>
100017b6:	2280      	movs	r2, #128	; 0x80
100017b8:	4b76      	ldr	r3, [pc, #472]	; (10001994 <main+0x94c>)
100017ba:	0152      	lsls	r2, r2, #5
100017bc:	6819      	ldr	r1, [r3, #0]
100017be:	404a      	eors	r2, r1
100017c0:	21e0      	movs	r1, #224	; 0xe0
100017c2:	01c9      	lsls	r1, r1, #7
100017c4:	400a      	ands	r2, r1
100017c6:	4974      	ldr	r1, [pc, #464]	; (10001998 <main+0x950>)
100017c8:	600a      	str	r2, [r1, #0]
100017ca:	2104      	movs	r1, #4
100017cc:	4a73      	ldr	r2, [pc, #460]	; (1000199c <main+0x954>)
100017ce:	6011      	str	r1, [r2, #0]
100017d0:	31fc      	adds	r1, #252	; 0xfc
100017d2:	681a      	ldr	r2, [r3, #0]
100017d4:	420a      	tst	r2, r1
100017d6:	d0fc      	beq.n	100017d2 <main+0x78a>
100017d8:	685b      	ldr	r3, [r3, #4]
100017da:	b29b      	uxth	r3, r3
100017dc:	091b      	lsrs	r3, r3, #4
100017de:	6123      	str	r3, [r4, #16]
100017e0:	f000 feac 	bl	1000253c <ClearDisplay>
100017e4:	2201      	movs	r2, #1
100017e6:	2100      	movs	r1, #0
100017e8:	203f      	movs	r0, #63	; 0x3f
100017ea:	f000 fec3 	bl	10002574 <setPixel1306>
100017ee:	f000 fe93 	bl	10002518 <UpdateDisplay>
100017f2:	20fa      	movs	r0, #250	; 0xfa
100017f4:	0040      	lsls	r0, r0, #1
100017f6:	f001 fcb3 	bl	10003160 <sleep_ms>
100017fa:	21d0      	movs	r1, #208	; 0xd0
100017fc:	2201      	movs	r2, #1
100017fe:	0609      	lsls	r1, r1, #24
10001800:	684b      	ldr	r3, [r1, #4]
10001802:	0d1b      	lsrs	r3, r3, #20
10001804:	421a      	tst	r2, r3
10001806:	d1fb      	bne.n	10001800 <main+0x7b8>
10001808:	2280      	movs	r2, #128	; 0x80
1000180a:	4b62      	ldr	r3, [pc, #392]	; (10001994 <main+0x94c>)
1000180c:	0152      	lsls	r2, r2, #5
1000180e:	6819      	ldr	r1, [r3, #0]
10001810:	404a      	eors	r2, r1
10001812:	21e0      	movs	r1, #224	; 0xe0
10001814:	01c9      	lsls	r1, r1, #7
10001816:	400a      	ands	r2, r1
10001818:	495f      	ldr	r1, [pc, #380]	; (10001998 <main+0x950>)
1000181a:	600a      	str	r2, [r1, #0]
1000181c:	2104      	movs	r1, #4
1000181e:	4a5f      	ldr	r2, [pc, #380]	; (1000199c <main+0x954>)
10001820:	6011      	str	r1, [r2, #0]
10001822:	31fc      	adds	r1, #252	; 0xfc
10001824:	681a      	ldr	r2, [r3, #0]
10001826:	420a      	tst	r2, r1
10001828:	d0fc      	beq.n	10001824 <main+0x7dc>
1000182a:	685b      	ldr	r3, [r3, #4]
1000182c:	b29b      	uxth	r3, r3
1000182e:	091b      	lsrs	r3, r3, #4
10001830:	6163      	str	r3, [r4, #20]
10001832:	f000 fe83 	bl	1000253c <ClearDisplay>
10001836:	2201      	movs	r2, #1
10001838:	211f      	movs	r1, #31
1000183a:	2000      	movs	r0, #0
1000183c:	f000 fe9a 	bl	10002574 <setPixel1306>
10001840:	f000 fe6a 	bl	10002518 <UpdateDisplay>
10001844:	20fa      	movs	r0, #250	; 0xfa
10001846:	0040      	lsls	r0, r0, #1
10001848:	f001 fc8a 	bl	10003160 <sleep_ms>
1000184c:	21d0      	movs	r1, #208	; 0xd0
1000184e:	2201      	movs	r2, #1
10001850:	0609      	lsls	r1, r1, #24
10001852:	684b      	ldr	r3, [r1, #4]
10001854:	0d1b      	lsrs	r3, r3, #20
10001856:	421a      	tst	r2, r3
10001858:	d1fb      	bne.n	10001852 <main+0x80a>
1000185a:	21e0      	movs	r1, #224	; 0xe0
1000185c:	4b4d      	ldr	r3, [pc, #308]	; (10001994 <main+0x94c>)
1000185e:	01c9      	lsls	r1, r1, #7
10001860:	681a      	ldr	r2, [r3, #0]
10001862:	400a      	ands	r2, r1
10001864:	494c      	ldr	r1, [pc, #304]	; (10001998 <main+0x950>)
10001866:	600a      	str	r2, [r1, #0]
10001868:	2104      	movs	r1, #4
1000186a:	4a4c      	ldr	r2, [pc, #304]	; (1000199c <main+0x954>)
1000186c:	6011      	str	r1, [r2, #0]
1000186e:	31fc      	adds	r1, #252	; 0xfc
10001870:	681a      	ldr	r2, [r3, #0]
10001872:	420a      	tst	r2, r1
10001874:	d0fc      	beq.n	10001870 <main+0x828>
10001876:	685b      	ldr	r3, [r3, #4]
10001878:	b29b      	uxth	r3, r3
1000187a:	091b      	lsrs	r3, r3, #4
1000187c:	60a3      	str	r3, [r4, #8]
1000187e:	f000 fe5d 	bl	1000253c <ClearDisplay>
10001882:	2201      	movs	r2, #1
10001884:	213f      	movs	r1, #63	; 0x3f
10001886:	207f      	movs	r0, #127	; 0x7f
10001888:	f000 fe74 	bl	10002574 <setPixel1306>
1000188c:	f000 fe44 	bl	10002518 <UpdateDisplay>
10001890:	20fa      	movs	r0, #250	; 0xfa
10001892:	0040      	lsls	r0, r0, #1
10001894:	f001 fc64 	bl	10003160 <sleep_ms>
10001898:	21d0      	movs	r1, #208	; 0xd0
1000189a:	2201      	movs	r2, #1
1000189c:	0609      	lsls	r1, r1, #24
1000189e:	684b      	ldr	r3, [r1, #4]
100018a0:	0d1b      	lsrs	r3, r3, #20
100018a2:	421a      	tst	r2, r3
100018a4:	d1fb      	bne.n	1000189e <main+0x856>
100018a6:	2280      	movs	r2, #128	; 0x80
100018a8:	4b3a      	ldr	r3, [pc, #232]	; (10001994 <main+0x94c>)
100018aa:	0192      	lsls	r2, r2, #6
100018ac:	6819      	ldr	r1, [r3, #0]
100018ae:	404a      	eors	r2, r1
100018b0:	21e0      	movs	r1, #224	; 0xe0
100018b2:	01c9      	lsls	r1, r1, #7
100018b4:	400a      	ands	r2, r1
100018b6:	4938      	ldr	r1, [pc, #224]	; (10001998 <main+0x950>)
100018b8:	600a      	str	r2, [r1, #0]
100018ba:	2104      	movs	r1, #4
100018bc:	4a37      	ldr	r2, [pc, #220]	; (1000199c <main+0x954>)
100018be:	6011      	str	r1, [r2, #0]
100018c0:	31fc      	adds	r1, #252	; 0xfc
100018c2:	681a      	ldr	r2, [r3, #0]
100018c4:	420a      	tst	r2, r1
100018c6:	d0fc      	beq.n	100018c2 <main+0x87a>
100018c8:	685b      	ldr	r3, [r3, #4]
100018ca:	b29b      	uxth	r3, r3
100018cc:	091b      	lsrs	r3, r3, #4
100018ce:	61e3      	str	r3, [r4, #28]
100018d0:	f000 fe34 	bl	1000253c <ClearDisplay>
100018d4:	2201      	movs	r2, #1
100018d6:	213f      	movs	r1, #63	; 0x3f
100018d8:	2000      	movs	r0, #0
100018da:	f000 fe4b 	bl	10002574 <setPixel1306>
100018de:	f000 fe1b 	bl	10002518 <UpdateDisplay>
100018e2:	20fa      	movs	r0, #250	; 0xfa
100018e4:	0040      	lsls	r0, r0, #1
100018e6:	f001 fc3b 	bl	10003160 <sleep_ms>
100018ea:	21d0      	movs	r1, #208	; 0xd0
100018ec:	2201      	movs	r2, #1
100018ee:	0609      	lsls	r1, r1, #24
100018f0:	684b      	ldr	r3, [r1, #4]
100018f2:	0d1b      	lsrs	r3, r3, #20
100018f4:	421a      	tst	r2, r3
100018f6:	d1fb      	bne.n	100018f0 <main+0x8a8>
100018f8:	22c0      	movs	r2, #192	; 0xc0
100018fa:	4b26      	ldr	r3, [pc, #152]	; (10001994 <main+0x94c>)
100018fc:	0192      	lsls	r2, r2, #6
100018fe:	6819      	ldr	r1, [r3, #0]
10001900:	404a      	eors	r2, r1
10001902:	21e0      	movs	r1, #224	; 0xe0
10001904:	01c9      	lsls	r1, r1, #7
10001906:	400a      	ands	r2, r1
10001908:	4923      	ldr	r1, [pc, #140]	; (10001998 <main+0x950>)
1000190a:	600a      	str	r2, [r1, #0]
1000190c:	2104      	movs	r1, #4
1000190e:	4a23      	ldr	r2, [pc, #140]	; (1000199c <main+0x954>)
10001910:	6011      	str	r1, [r2, #0]
10001912:	31fc      	adds	r1, #252	; 0xfc
10001914:	681a      	ldr	r2, [r3, #0]
10001916:	420a      	tst	r2, r1
10001918:	d0fc      	beq.n	10001914 <main+0x8cc>
1000191a:	685b      	ldr	r3, [r3, #4]
1000191c:	b29b      	uxth	r3, r3
1000191e:	091b      	lsrs	r3, r3, #4
10001920:	6263      	str	r3, [r4, #36]	; 0x24
10001922:	f000 fe0b 	bl	1000253c <ClearDisplay>
10001926:	f3ef 8510 	mrs	r5, PRIMASK
1000192a:	b672      	cpsid	i
1000192c:	2180      	movs	r1, #128	; 0x80
1000192e:	2090      	movs	r0, #144	; 0x90
10001930:	0149      	lsls	r1, r1, #5
10001932:	0340      	lsls	r0, r0, #13
10001934:	f003 fc30 	bl	10005198 <__flash_range_erase_veneer>
10001938:	2280      	movs	r2, #128	; 0x80
1000193a:	2090      	movs	r0, #144	; 0x90
1000193c:	0021      	movs	r1, r4
1000193e:	0052      	lsls	r2, r2, #1
10001940:	0340      	lsls	r0, r0, #13
10001942:	f003 fc11 	bl	10005168 <__flash_range_program_veneer>
10001946:	f385 8810 	msr	PRIMASK, r5
1000194a:	e414      	b.n	10001176 <main+0x12e>
1000194c:	0020      	movs	r0, r4
1000194e:	f002 fbab 	bl	100040a8 <__wrap___clz>
10001952:	231f      	movs	r3, #31
10001954:	1a18      	subs	r0, r3, r0
10001956:	4085      	lsls	r5, r0
10001958:	4b12      	ldr	r3, [pc, #72]	; (100019a4 <main+0x95c>)
1000195a:	43ac      	bics	r4, r5
1000195c:	601c      	str	r4, [r3, #0]
1000195e:	0304      	lsls	r4, r0, #12
10001960:	f3ef 8510 	mrs	r5, PRIMASK
10001964:	b672      	cpsid	i
10001966:	465b      	mov	r3, fp
10001968:	2180      	movs	r1, #128	; 0x80
1000196a:	681b      	ldr	r3, [r3, #0]
1000196c:	0149      	lsls	r1, r1, #5
1000196e:	0458      	lsls	r0, r3, #17
10001970:	1900      	adds	r0, r0, r4
10001972:	f003 fc11 	bl	10005198 <__flash_range_erase_veneer>
10001976:	4b0c      	ldr	r3, [pc, #48]	; (100019a8 <main+0x960>)
10001978:	2280      	movs	r2, #128	; 0x80
1000197a:	1919      	adds	r1, r3, r4
1000197c:	465b      	mov	r3, fp
1000197e:	681b      	ldr	r3, [r3, #0]
10001980:	0152      	lsls	r2, r2, #5
10001982:	0458      	lsls	r0, r3, #17
10001984:	1900      	adds	r0, r0, r4
10001986:	f003 fbef 	bl	10005168 <__flash_range_program_veneer>
1000198a:	f385 8810 	msr	PRIMASK, r5
1000198e:	e4d9      	b.n	10001344 <main+0x2fc>
10001990:	0000ffff 	.word	0x0000ffff
10001994:	4004c000 	.word	0x4004c000
10001998:	4004d000 	.word	0x4004d000
1000199c:	4004e000 	.word	0x4004e000
100019a0:	200278cc 	.word	0x200278cc
100019a4:	20027524 	.word	0x20027524
100019a8:	200060c4 	.word	0x200060c4

100019ac <BuildStateMachineTables>:
100019ac:	b5f0      	push	{r4, r5, r6, r7, lr}
100019ae:	46de      	mov	lr, fp
100019b0:	4657      	mov	r7, sl
100019b2:	464e      	mov	r6, r9
100019b4:	4645      	mov	r5, r8
100019b6:	4b9a      	ldr	r3, [pc, #616]	; (10001c20 <BuildStateMachineTables+0x274>)
100019b8:	b5e0      	push	{r5, r6, r7, lr}
100019ba:	681f      	ldr	r7, [r3, #0]
100019bc:	4b99      	ldr	r3, [pc, #612]	; (10001c24 <BuildStateMachineTables+0x278>)
100019be:	00bd      	lsls	r5, r7, #2
100019c0:	19ed      	adds	r5, r5, r7
100019c2:	00ad      	lsls	r5, r5, #2
100019c4:	469a      	mov	sl, r3
100019c6:	46a8      	mov	r8, r5
100019c8:	44d0      	add	r8, sl
100019ca:	b08b      	sub	sp, #44	; 0x2c
100019cc:	2214      	movs	r2, #20
100019ce:	21ff      	movs	r1, #255	; 0xff
100019d0:	4640      	mov	r0, r8
100019d2:	f002 fecd 	bl	10004770 <__wrap_memset>
100019d6:	0028      	movs	r0, r5
100019d8:	4643      	mov	r3, r8
100019da:	3014      	adds	r0, #20
100019dc:	60df      	str	r7, [r3, #12]
100019de:	2214      	movs	r2, #20
100019e0:	1cbb      	adds	r3, r7, #2
100019e2:	21ff      	movs	r1, #255	; 0xff
100019e4:	4450      	add	r0, sl
100019e6:	4699      	mov	r9, r3
100019e8:	f002 fec2 	bl	10004770 <__wrap_memset>
100019ec:	4653      	mov	r3, sl
100019ee:	1c7e      	adds	r6, r7, #1
100019f0:	00b4      	lsls	r4, r6, #2
100019f2:	19a4      	adds	r4, r4, r6
100019f4:	00a4      	lsls	r4, r4, #2
100019f6:	191b      	adds	r3, r3, r4
100019f8:	0028      	movs	r0, r5
100019fa:	609e      	str	r6, [r3, #8]
100019fc:	4643      	mov	r3, r8
100019fe:	3028      	adds	r0, #40	; 0x28
10001a00:	609e      	str	r6, [r3, #8]
10001a02:	2214      	movs	r2, #20
10001a04:	1cfb      	adds	r3, r7, #3
10001a06:	21ff      	movs	r1, #255	; 0xff
10001a08:	4450      	add	r0, sl
10001a0a:	4698      	mov	r8, r3
10001a0c:	f002 feb0 	bl	10004770 <__wrap_memset>
10001a10:	464b      	mov	r3, r9
10001a12:	0028      	movs	r0, r5
10001a14:	464a      	mov	r2, r9
10001a16:	009e      	lsls	r6, r3, #2
10001a18:	4653      	mov	r3, sl
10001a1a:	444e      	add	r6, r9
10001a1c:	00b6      	lsls	r6, r6, #2
10001a1e:	303c      	adds	r0, #60	; 0x3c
10001a20:	519a      	str	r2, [r3, r6]
10001a22:	21ff      	movs	r1, #255	; 0xff
10001a24:	511a      	str	r2, [r3, r4]
10001a26:	4450      	add	r0, sl
10001a28:	1d3b      	adds	r3, r7, #4
10001a2a:	2214      	movs	r2, #20
10001a2c:	4699      	mov	r9, r3
10001a2e:	f002 fe9f 	bl	10004770 <__wrap_memset>
10001a32:	4643      	mov	r3, r8
10001a34:	0028      	movs	r0, r5
10001a36:	009c      	lsls	r4, r3, #2
10001a38:	4653      	mov	r3, sl
10001a3a:	4642      	mov	r2, r8
10001a3c:	4444      	add	r4, r8
10001a3e:	00a4      	lsls	r4, r4, #2
10001a40:	191b      	adds	r3, r3, r4
10001a42:	4456      	add	r6, sl
10001a44:	3050      	adds	r0, #80	; 0x50
10001a46:	609a      	str	r2, [r3, #8]
10001a48:	21ff      	movs	r1, #255	; 0xff
10001a4a:	1d7b      	adds	r3, r7, #5
10001a4c:	60b2      	str	r2, [r6, #8]
10001a4e:	4450      	add	r0, sl
10001a50:	2214      	movs	r2, #20
10001a52:	4698      	mov	r8, r3
10001a54:	f002 fe8c 	bl	10004770 <__wrap_memset>
10001a58:	464b      	mov	r3, r9
10001a5a:	0028      	movs	r0, r5
10001a5c:	464a      	mov	r2, r9
10001a5e:	009e      	lsls	r6, r3, #2
10001a60:	4653      	mov	r3, sl
10001a62:	444e      	add	r6, r9
10001a64:	00b6      	lsls	r6, r6, #2
10001a66:	3064      	adds	r0, #100	; 0x64
10001a68:	519a      	str	r2, [r3, r6]
10001a6a:	21ff      	movs	r1, #255	; 0xff
10001a6c:	511a      	str	r2, [r3, r4]
10001a6e:	4450      	add	r0, sl
10001a70:	1dbb      	adds	r3, r7, #6
10001a72:	2214      	movs	r2, #20
10001a74:	4699      	mov	r9, r3
10001a76:	f002 fe7b 	bl	10004770 <__wrap_memset>
10001a7a:	4643      	mov	r3, r8
10001a7c:	0028      	movs	r0, r5
10001a7e:	009c      	lsls	r4, r3, #2
10001a80:	4653      	mov	r3, sl
10001a82:	4642      	mov	r2, r8
10001a84:	4444      	add	r4, r8
10001a86:	00a4      	lsls	r4, r4, #2
10001a88:	191b      	adds	r3, r3, r4
10001a8a:	4456      	add	r6, sl
10001a8c:	3078      	adds	r0, #120	; 0x78
10001a8e:	609a      	str	r2, [r3, #8]
10001a90:	21ff      	movs	r1, #255	; 0xff
10001a92:	1dfb      	adds	r3, r7, #7
10001a94:	60b2      	str	r2, [r6, #8]
10001a96:	4450      	add	r0, sl
10001a98:	2214      	movs	r2, #20
10001a9a:	4698      	mov	r8, r3
10001a9c:	f002 fe68 	bl	10004770 <__wrap_memset>
10001aa0:	464b      	mov	r3, r9
10001aa2:	464a      	mov	r2, r9
10001aa4:	009e      	lsls	r6, r3, #2
10001aa6:	4653      	mov	r3, sl
10001aa8:	0028      	movs	r0, r5
10001aaa:	444e      	add	r6, r9
10001aac:	00b6      	lsls	r6, r6, #2
10001aae:	519a      	str	r2, [r3, r6]
10001ab0:	511a      	str	r2, [r3, r4]
10001ab2:	2308      	movs	r3, #8
10001ab4:	308c      	adds	r0, #140	; 0x8c
10001ab6:	2214      	movs	r2, #20
10001ab8:	21ff      	movs	r1, #255	; 0xff
10001aba:	4450      	add	r0, sl
10001abc:	4699      	mov	r9, r3
10001abe:	f002 fe57 	bl	10004770 <__wrap_memset>
10001ac2:	4643      	mov	r3, r8
10001ac4:	009c      	lsls	r4, r3, #2
10001ac6:	4653      	mov	r3, sl
10001ac8:	4642      	mov	r2, r8
10001aca:	4444      	add	r4, r8
10001acc:	00a4      	lsls	r4, r4, #2
10001ace:	0028      	movs	r0, r5
10001ad0:	191b      	adds	r3, r3, r4
10001ad2:	609a      	str	r2, [r3, #8]
10001ad4:	2309      	movs	r3, #9
10001ad6:	4456      	add	r6, sl
10001ad8:	30a0      	adds	r0, #160	; 0xa0
10001ada:	44b9      	add	r9, r7
10001adc:	60b2      	str	r2, [r6, #8]
10001ade:	21ff      	movs	r1, #255	; 0xff
10001ae0:	2214      	movs	r2, #20
10001ae2:	4450      	add	r0, sl
10001ae4:	4698      	mov	r8, r3
10001ae6:	f002 fe43 	bl	10004770 <__wrap_memset>
10001aea:	464b      	mov	r3, r9
10001aec:	464a      	mov	r2, r9
10001aee:	009e      	lsls	r6, r3, #2
10001af0:	4653      	mov	r3, sl
10001af2:	0028      	movs	r0, r5
10001af4:	444e      	add	r6, r9
10001af6:	00b6      	lsls	r6, r6, #2
10001af8:	519a      	str	r2, [r3, r6]
10001afa:	511a      	str	r2, [r3, r4]
10001afc:	230a      	movs	r3, #10
10001afe:	30b4      	adds	r0, #180	; 0xb4
10001b00:	44b8      	add	r8, r7
10001b02:	2214      	movs	r2, #20
10001b04:	21ff      	movs	r1, #255	; 0xff
10001b06:	4450      	add	r0, sl
10001b08:	469b      	mov	fp, r3
10001b0a:	f002 fe31 	bl	10004770 <__wrap_memset>
10001b0e:	4643      	mov	r3, r8
10001b10:	009c      	lsls	r4, r3, #2
10001b12:	4444      	add	r4, r8
10001b14:	00a4      	lsls	r4, r4, #2
10001b16:	4454      	add	r4, sl
10001b18:	4456      	add	r6, sl
10001b1a:	60a3      	str	r3, [r4, #8]
10001b1c:	60b3      	str	r3, [r6, #8]
10001b1e:	230b      	movs	r3, #11
10001b20:	469c      	mov	ip, r3
10001b22:	0028      	movs	r0, r5
10001b24:	44bc      	add	ip, r7
10001b26:	4663      	mov	r3, ip
10001b28:	30c8      	adds	r0, #200	; 0xc8
10001b2a:	44bb      	add	fp, r7
10001b2c:	2214      	movs	r2, #20
10001b2e:	21ff      	movs	r1, #255	; 0xff
10001b30:	4450      	add	r0, sl
10001b32:	9302      	str	r3, [sp, #8]
10001b34:	f002 fe1c 	bl	10004770 <__wrap_memset>
10001b38:	465a      	mov	r2, fp
10001b3a:	0096      	lsls	r6, r2, #2
10001b3c:	18b3      	adds	r3, r6, r2
10001b3e:	009b      	lsls	r3, r3, #2
10001b40:	4453      	add	r3, sl
10001b42:	60da      	str	r2, [r3, #12]
10001b44:	2200      	movs	r2, #0
10001b46:	611a      	str	r2, [r3, #16]
10001b48:	9b02      	ldr	r3, [sp, #8]
10001b4a:	465a      	mov	r2, fp
10001b4c:	4699      	mov	r9, r3
10001b4e:	2300      	movs	r3, #0
10001b50:	9301      	str	r3, [sp, #4]
10001b52:	002b      	movs	r3, r5
10001b54:	60e2      	str	r2, [r4, #12]
10001b56:	002c      	movs	r4, r5
10001b58:	46b8      	mov	r8, r7
10001b5a:	464d      	mov	r5, r9
10001b5c:	0037      	movs	r7, r6
10001b5e:	4699      	mov	r9, r3
10001b60:	465e      	mov	r6, fp
10001b62:	34dc      	adds	r4, #220	; 0xdc
10001b64:	4454      	add	r4, sl
10001b66:	1c6a      	adds	r2, r5, #1
10001b68:	21ff      	movs	r1, #255	; 0xff
10001b6a:	9204      	str	r2, [sp, #16]
10001b6c:	0020      	movs	r0, r4
10001b6e:	2214      	movs	r2, #20
10001b70:	f002 fdfe 	bl	10004770 <__wrap_memset>
10001b74:	19bb      	adds	r3, r7, r6
10001b76:	009b      	lsls	r3, r3, #2
10001b78:	4453      	add	r3, sl
10001b7a:	6065      	str	r5, [r4, #4]
10001b7c:	605d      	str	r5, [r3, #4]
10001b7e:	0023      	movs	r3, r4
10001b80:	3b10      	subs	r3, #16
10001b82:	601d      	str	r5, [r3, #0]
10001b84:	9b01      	ldr	r3, [sp, #4]
10001b86:	0020      	movs	r0, r4
10001b88:	3301      	adds	r3, #1
10001b8a:	0059      	lsls	r1, r3, #1
10001b8c:	468b      	mov	fp, r1
10001b8e:	2214      	movs	r2, #20
10001b90:	21ff      	movs	r1, #255	; 0xff
10001b92:	3014      	adds	r0, #20
10001b94:	9301      	str	r3, [sp, #4]
10001b96:	f002 fdeb 	bl	10004770 <__wrap_memset>
10001b9a:	4658      	mov	r0, fp
10001b9c:	2180      	movs	r1, #128	; 0x80
10001b9e:	4301      	orrs	r1, r0
10001ba0:	0020      	movs	r0, r4
10001ba2:	1c6a      	adds	r2, r5, #1
10001ba4:	6222      	str	r2, [r4, #32]
10001ba6:	6261      	str	r1, [r4, #36]	; 0x24
10001ba8:	60e2      	str	r2, [r4, #12]
10001baa:	21ff      	movs	r1, #255	; 0xff
10001bac:	2214      	movs	r2, #20
10001bae:	3028      	adds	r0, #40	; 0x28
10001bb0:	f002 fdde 	bl	10004770 <__wrap_memset>
10001bb4:	465a      	mov	r2, fp
10001bb6:	9b01      	ldr	r3, [sp, #4]
10001bb8:	1cae      	adds	r6, r5, #2
10001bba:	1cef      	adds	r7, r5, #3
10001bbc:	62a6      	str	r6, [r4, #40]	; 0x28
10001bbe:	63a2      	str	r2, [r4, #56]	; 0x38
10001bc0:	6026      	str	r6, [r4, #0]
10001bc2:	2b01      	cmp	r3, #1
10001bc4:	d101      	bne.n	10001bca <BuildStateMachineTables+0x21e>
10001bc6:	1c6b      	adds	r3, r5, #1
10001bc8:	9303      	str	r3, [sp, #12]
10001bca:	0020      	movs	r0, r4
10001bcc:	2214      	movs	r2, #20
10001bce:	21ff      	movs	r1, #255	; 0xff
10001bd0:	303c      	adds	r0, #60	; 0x3c
10001bd2:	f002 fdcd 	bl	10004770 <__wrap_memset>
10001bd6:	2301      	movs	r3, #1
10001bd8:	0020      	movs	r0, r4
10001bda:	469c      	mov	ip, r3
10001bdc:	6467      	str	r7, [r4, #68]	; 0x44
10001bde:	44e3      	add	fp, ip
10001be0:	61e7      	str	r7, [r4, #28]
10001be2:	6327      	str	r7, [r4, #48]	; 0x30
10001be4:	2214      	movs	r2, #20
10001be6:	21ff      	movs	r1, #255	; 0xff
10001be8:	3050      	adds	r0, #80	; 0x50
10001bea:	f002 fdc1 	bl	10004770 <__wrap_memset>
10001bee:	2280      	movs	r2, #128	; 0x80
10001bf0:	465b      	mov	r3, fp
10001bf2:	0020      	movs	r0, r4
10001bf4:	4313      	orrs	r3, r2
10001bf6:	1d2e      	adds	r6, r5, #4
10001bf8:	6623      	str	r3, [r4, #96]	; 0x60
10001bfa:	65e6      	str	r6, [r4, #92]	; 0x5c
10001bfc:	64a6      	str	r6, [r4, #72]	; 0x48
10001bfe:	21ff      	movs	r1, #255	; 0xff
10001c00:	3064      	adds	r0, #100	; 0x64
10001c02:	3a6c      	subs	r2, #108	; 0x6c
10001c04:	f002 fdb4 	bl	10004770 <__wrap_memset>
10001c08:	465b      	mov	r3, fp
10001c0a:	6763      	str	r3, [r4, #116]	; 0x74
10001c0c:	9b01      	ldr	r3, [sp, #4]
10001c0e:	1d6f      	adds	r7, r5, #5
10001c10:	6667      	str	r7, [r4, #100]	; 0x64
10001c12:	63e7      	str	r7, [r4, #60]	; 0x3c
10001c14:	3506      	adds	r5, #6
10001c16:	3478      	adds	r4, #120	; 0x78
10001c18:	2b04      	cmp	r3, #4
10001c1a:	d005      	beq.n	10001c28 <BuildStateMachineTables+0x27c>
10001c1c:	00b7      	lsls	r7, r6, #2
10001c1e:	e7a2      	b.n	10001b66 <BuildStateMachineTables+0x1ba>
10001c20:	200260ec 	.word	0x200260ec
10001c24:	200275ac 	.word	0x200275ac
10001c28:	4642      	mov	r2, r8
10001c2a:	3221      	adds	r2, #33	; 0x21
10001c2c:	0093      	lsls	r3, r2, #2
10001c2e:	189b      	adds	r3, r3, r2
10001c30:	9902      	ldr	r1, [sp, #8]
10001c32:	009b      	lsls	r3, r3, #2
10001c34:	3201      	adds	r2, #1
10001c36:	4453      	add	r3, sl
10001c38:	6059      	str	r1, [r3, #4]
10001c3a:	0093      	lsls	r3, r2, #2
10001c3c:	189b      	adds	r3, r3, r2
10001c3e:	009b      	lsls	r3, r3, #2
10001c40:	4453      	add	r3, sl
10001c42:	6059      	str	r1, [r3, #4]
10001c44:	2324      	movs	r3, #36	; 0x24
10001c46:	4647      	mov	r7, r8
10001c48:	4646      	mov	r6, r8
10001c4a:	4698      	mov	r8, r3
10001c4c:	23af      	movs	r3, #175	; 0xaf
10001c4e:	464d      	mov	r5, r9
10001c50:	009b      	lsls	r3, r3, #2
10001c52:	18e8      	adds	r0, r5, r3
10001c54:	2214      	movs	r2, #20
10001c56:	21ff      	movs	r1, #255	; 0xff
10001c58:	4450      	add	r0, sl
10001c5a:	f002 fd89 	bl	10004770 <__wrap_memset>
10001c5e:	9a03      	ldr	r2, [sp, #12]
10001c60:	4653      	mov	r3, sl
10001c62:	4694      	mov	ip, r2
10001c64:	3623      	adds	r6, #35	; 0x23
10001c66:	00b4      	lsls	r4, r6, #2
10001c68:	19a4      	adds	r4, r4, r6
10001c6a:	00a4      	lsls	r4, r4, #2
10001c6c:	191b      	adds	r3, r3, r4
10001c6e:	605e      	str	r6, [r3, #4]
10001c70:	0093      	lsls	r3, r2, #2
10001c72:	4463      	add	r3, ip
10001c74:	009b      	lsls	r3, r3, #2
10001c76:	4453      	add	r3, sl
10001c78:	605e      	str	r6, [r3, #4]
10001c7a:	2325      	movs	r3, #37	; 0x25
10001c7c:	4699      	mov	r9, r3
10001c7e:	23b4      	movs	r3, #180	; 0xb4
10001c80:	009b      	lsls	r3, r3, #2
10001c82:	18e8      	adds	r0, r5, r3
10001c84:	44b8      	add	r8, r7
10001c86:	2214      	movs	r2, #20
10001c88:	21ff      	movs	r1, #255	; 0xff
10001c8a:	4450      	add	r0, sl
10001c8c:	f002 fd70 	bl	10004770 <__wrap_memset>
10001c90:	4643      	mov	r3, r8
10001c92:	4642      	mov	r2, r8
10001c94:	009e      	lsls	r6, r3, #2
10001c96:	4653      	mov	r3, sl
10001c98:	4446      	add	r6, r8
10001c9a:	00b6      	lsls	r6, r6, #2
10001c9c:	519a      	str	r2, [r3, r6]
10001c9e:	511a      	str	r2, [r3, r4]
10001ca0:	2326      	movs	r3, #38	; 0x26
10001ca2:	4698      	mov	r8, r3
10001ca4:	23b9      	movs	r3, #185	; 0xb9
10001ca6:	009b      	lsls	r3, r3, #2
10001ca8:	18e8      	adds	r0, r5, r3
10001caa:	44b9      	add	r9, r7
10001cac:	2214      	movs	r2, #20
10001cae:	21ff      	movs	r1, #255	; 0xff
10001cb0:	4450      	add	r0, sl
10001cb2:	f002 fd5d 	bl	10004770 <__wrap_memset>
10001cb6:	464b      	mov	r3, r9
10001cb8:	009c      	lsls	r4, r3, #2
10001cba:	4653      	mov	r3, sl
10001cbc:	464a      	mov	r2, r9
10001cbe:	444c      	add	r4, r9
10001cc0:	00a4      	lsls	r4, r4, #2
10001cc2:	191b      	adds	r3, r3, r4
10001cc4:	605a      	str	r2, [r3, #4]
10001cc6:	2201      	movs	r2, #1
10001cc8:	611a      	str	r2, [r3, #16]
10001cca:	464b      	mov	r3, r9
10001ccc:	4456      	add	r6, sl
10001cce:	6073      	str	r3, [r6, #4]
10001cd0:	2327      	movs	r3, #39	; 0x27
10001cd2:	4699      	mov	r9, r3
10001cd4:	23be      	movs	r3, #190	; 0xbe
10001cd6:	009b      	lsls	r3, r3, #2
10001cd8:	18e8      	adds	r0, r5, r3
10001cda:	44b8      	add	r8, r7
10001cdc:	21ff      	movs	r1, #255	; 0xff
10001cde:	3213      	adds	r2, #19
10001ce0:	4450      	add	r0, sl
10001ce2:	f002 fd45 	bl	10004770 <__wrap_memset>
10001ce6:	4643      	mov	r3, r8
10001ce8:	4642      	mov	r2, r8
10001cea:	009e      	lsls	r6, r3, #2
10001cec:	4653      	mov	r3, sl
10001cee:	4446      	add	r6, r8
10001cf0:	00b6      	lsls	r6, r6, #2
10001cf2:	519a      	str	r2, [r3, r6]
10001cf4:	511a      	str	r2, [r3, r4]
10001cf6:	4bb7      	ldr	r3, [pc, #732]	; (10001fd4 <BuildStateMachineTables+0x628>)
10001cf8:	44b9      	add	r9, r7
10001cfa:	3728      	adds	r7, #40	; 0x28
10001cfc:	601f      	str	r7, [r3, #0]
10001cfe:	23c3      	movs	r3, #195	; 0xc3
10001d00:	009b      	lsls	r3, r3, #2
10001d02:	18e8      	adds	r0, r5, r3
10001d04:	2214      	movs	r2, #20
10001d06:	21ff      	movs	r1, #255	; 0xff
10001d08:	4450      	add	r0, sl
10001d0a:	f002 fd31 	bl	10004770 <__wrap_memset>
10001d0e:	464b      	mov	r3, r9
10001d10:	464a      	mov	r2, r9
10001d12:	009b      	lsls	r3, r3, #2
10001d14:	444b      	add	r3, r9
10001d16:	009b      	lsls	r3, r3, #2
10001d18:	4453      	add	r3, sl
10001d1a:	4456      	add	r6, sl
10001d1c:	605a      	str	r2, [r3, #4]
10001d1e:	6072      	str	r2, [r6, #4]
10001d20:	2200      	movs	r2, #0
10001d22:	60da      	str	r2, [r3, #12]
10001d24:	4bac      	ldr	r3, [pc, #688]	; (10001fd8 <BuildStateMachineTables+0x62c>)
10001d26:	681d      	ldr	r5, [r3, #0]
10001d28:	2300      	movs	r3, #0
10001d2a:	9305      	str	r3, [sp, #20]
10001d2c:	3303      	adds	r3, #3
10001d2e:	469b      	mov	fp, r3
10001d30:	9a05      	ldr	r2, [sp, #20]
10001d32:	2600      	movs	r6, #0
10001d34:	4694      	mov	ip, r2
10001d36:	0093      	lsls	r3, r2, #2
10001d38:	0211      	lsls	r1, r2, #8
10001d3a:	4463      	add	r3, ip
10001d3c:	9107      	str	r1, [sp, #28]
10001d3e:	9306      	str	r3, [sp, #24]
10001d40:	2200      	movs	r2, #0
10001d42:	ab08      	add	r3, sp, #32
10001d44:	809a      	strh	r2, [r3, #4]
10001d46:	9a06      	ldr	r2, [sp, #24]
10001d48:	11b3      	asrs	r3, r6, #6
10001d4a:	4694      	mov	ip, r2
10001d4c:	4652      	mov	r2, sl
10001d4e:	4463      	add	r3, ip
10001d50:	009b      	lsls	r3, r3, #2
10001d52:	58d2      	ldr	r2, [r2, r3]
10001d54:	2300      	movs	r3, #0
10001d56:	4698      	mov	r8, r3
10001d58:	2a00      	cmp	r2, #0
10001d5a:	da02      	bge.n	10001d62 <BuildStateMachineTables+0x3b6>
10001d5c:	3301      	adds	r3, #1
10001d5e:	4698      	mov	r8, r3
10001d60:	2200      	movs	r2, #0
10001d62:	9b05      	ldr	r3, [sp, #20]
10001d64:	429a      	cmp	r2, r3
10001d66:	d100      	bne.n	10001d6a <BuildStateMachineTables+0x3be>
10001d68:	e0f8      	b.n	10001f5c <BuildStateMachineTables+0x5b0>
10001d6a:	0093      	lsls	r3, r2, #2
10001d6c:	1899      	adds	r1, r3, r2
10001d6e:	0089      	lsls	r1, r1, #2
10001d70:	4451      	add	r1, sl
10001d72:	690f      	ldr	r7, [r1, #16]
10001d74:	2180      	movs	r1, #128	; 0x80
10001d76:	4239      	tst	r1, r7
10001d78:	d000      	beq.n	10001d7c <BuildStateMachineTables+0x3d0>
10001d7a:	e0f7      	b.n	10001f6c <BuildStateMachineTables+0x5c0>
10001d7c:	2100      	movs	r1, #0
10001d7e:	468c      	mov	ip, r1
10001d80:	2180      	movs	r1, #128	; 0x80
10001d82:	438f      	bics	r7, r1
10001d84:	2f01      	cmp	r7, #1
10001d86:	d100      	bne.n	10001d8a <BuildStateMachineTables+0x3de>
10001d88:	e101      	b.n	10001f8e <BuildStateMachineTables+0x5e2>
10001d8a:	2f09      	cmp	r7, #9
10001d8c:	d100      	bne.n	10001d90 <BuildStateMachineTables+0x3e4>
10001d8e:	e108      	b.n	10001fa2 <BuildStateMachineTables+0x5f6>
10001d90:	4279      	negs	r1, r7
10001d92:	414f      	adcs	r7, r1
10001d94:	2100      	movs	r1, #0
10001d96:	b2ff      	uxtb	r7, r7
10001d98:	9102      	str	r1, [sp, #8]
10001d9a:	9101      	str	r1, [sp, #4]
10001d9c:	9103      	str	r1, [sp, #12]
10001d9e:	465c      	mov	r4, fp
10001da0:	00b1      	lsls	r1, r6, #2
10001da2:	1189      	asrs	r1, r1, #6
10001da4:	4021      	ands	r1, r4
10001da6:	189b      	adds	r3, r3, r2
10001da8:	185b      	adds	r3, r3, r1
10001daa:	4651      	mov	r1, sl
10001dac:	009b      	lsls	r3, r3, #2
10001dae:	58c9      	ldr	r1, [r1, r3]
10001db0:	2900      	cmp	r1, #0
10001db2:	da02      	bge.n	10001dba <BuildStateMachineTables+0x40e>
10001db4:	2301      	movs	r3, #1
10001db6:	2100      	movs	r1, #0
10001db8:	4698      	mov	r8, r3
10001dba:	008b      	lsls	r3, r1, #2
10001dbc:	428a      	cmp	r2, r1
10001dbe:	d021      	beq.n	10001e04 <BuildStateMachineTables+0x458>
10001dc0:	2480      	movs	r4, #128	; 0x80
10001dc2:	185a      	adds	r2, r3, r1
10001dc4:	0092      	lsls	r2, r2, #2
10001dc6:	4452      	add	r2, sl
10001dc8:	6912      	ldr	r2, [r2, #16]
10001dca:	9204      	str	r2, [sp, #16]
10001dcc:	4214      	tst	r4, r2
10001dce:	d00d      	beq.n	10001dec <BuildStateMachineTables+0x440>
10001dd0:	0014      	movs	r4, r2
10001dd2:	2080      	movs	r0, #128	; 0x80
10001dd4:	4384      	bics	r4, r0
10001dd6:	3877      	subs	r0, #119	; 0x77
10001dd8:	1b00      	subs	r0, r0, r4
10001dda:	2401      	movs	r4, #1
10001ddc:	4084      	lsls	r4, r0
10001dde:	0020      	movs	r0, r4
10001de0:	4664      	mov	r4, ip
10001de2:	4304      	orrs	r4, r0
10001de4:	0020      	movs	r0, r4
10001de6:	9a03      	ldr	r2, [sp, #12]
10001de8:	ac09      	add	r4, sp, #36	; 0x24
10001dea:	54a0      	strb	r0, [r4, r2]
10001dec:	2080      	movs	r0, #128	; 0x80
10001dee:	9a04      	ldr	r2, [sp, #16]
10001df0:	4382      	bics	r2, r0
10001df2:	2a01      	cmp	r2, #1
10001df4:	d100      	bne.n	10001df8 <BuildStateMachineTables+0x44c>
10001df6:	e0e4      	b.n	10001fc2 <BuildStateMachineTables+0x616>
10001df8:	2a09      	cmp	r2, #9
10001dfa:	d100      	bne.n	10001dfe <BuildStateMachineTables+0x452>
10001dfc:	e0dd      	b.n	10001fba <BuildStateMachineTables+0x60e>
10001dfe:	2a00      	cmp	r2, #0
10001e00:	d100      	bne.n	10001e04 <BuildStateMachineTables+0x458>
10001e02:	2701      	movs	r7, #1
10001e04:	4658      	mov	r0, fp
10001e06:	0132      	lsls	r2, r6, #4
10001e08:	1192      	asrs	r2, r2, #6
10001e0a:	4002      	ands	r2, r0
10001e0c:	185b      	adds	r3, r3, r1
10001e0e:	189b      	adds	r3, r3, r2
10001e10:	4652      	mov	r2, sl
10001e12:	009b      	lsls	r3, r3, #2
10001e14:	58d2      	ldr	r2, [r2, r3]
10001e16:	2a00      	cmp	r2, #0
10001e18:	da02      	bge.n	10001e20 <BuildStateMachineTables+0x474>
10001e1a:	2301      	movs	r3, #1
10001e1c:	2200      	movs	r2, #0
10001e1e:	4698      	mov	r8, r3
10001e20:	0093      	lsls	r3, r2, #2
10001e22:	4291      	cmp	r1, r2
10001e24:	d020      	beq.n	10001e68 <BuildStateMachineTables+0x4bc>
10001e26:	2080      	movs	r0, #128	; 0x80
10001e28:	1899      	adds	r1, r3, r2
10001e2a:	0089      	lsls	r1, r1, #2
10001e2c:	4451      	add	r1, sl
10001e2e:	6909      	ldr	r1, [r1, #16]
10001e30:	4689      	mov	r9, r1
10001e32:	4208      	tst	r0, r1
10001e34:	d00c      	beq.n	10001e50 <BuildStateMachineTables+0x4a4>
10001e36:	0008      	movs	r0, r1
10001e38:	2480      	movs	r4, #128	; 0x80
10001e3a:	43a0      	bics	r0, r4
10001e3c:	3c77      	subs	r4, #119	; 0x77
10001e3e:	1a20      	subs	r0, r4, r0
10001e40:	3c08      	subs	r4, #8
10001e42:	4084      	lsls	r4, r0
10001e44:	9903      	ldr	r1, [sp, #12]
10001e46:	a809      	add	r0, sp, #36	; 0x24
10001e48:	5c40      	ldrb	r0, [r0, r1]
10001e4a:	4320      	orrs	r0, r4
10001e4c:	ac09      	add	r4, sp, #36	; 0x24
10001e4e:	5460      	strb	r0, [r4, r1]
10001e50:	2080      	movs	r0, #128	; 0x80
10001e52:	4649      	mov	r1, r9
10001e54:	4381      	bics	r1, r0
10001e56:	2901      	cmp	r1, #1
10001e58:	d100      	bne.n	10001e5c <BuildStateMachineTables+0x4b0>
10001e5a:	e0b8      	b.n	10001fce <BuildStateMachineTables+0x622>
10001e5c:	2909      	cmp	r1, #9
10001e5e:	d100      	bne.n	10001e62 <BuildStateMachineTables+0x4b6>
10001e60:	e0a7      	b.n	10001fb2 <BuildStateMachineTables+0x606>
10001e62:	2900      	cmp	r1, #0
10001e64:	d100      	bne.n	10001e68 <BuildStateMachineTables+0x4bc>
10001e66:	2701      	movs	r7, #1
10001e68:	4658      	mov	r0, fp
10001e6a:	01b1      	lsls	r1, r6, #6
10001e6c:	1189      	asrs	r1, r1, #6
10001e6e:	4001      	ands	r1, r0
10001e70:	189b      	adds	r3, r3, r2
10001e72:	185b      	adds	r3, r3, r1
10001e74:	4651      	mov	r1, sl
10001e76:	009b      	lsls	r3, r3, #2
10001e78:	58cb      	ldr	r3, [r1, r3]
10001e7a:	2b00      	cmp	r3, #0
10001e7c:	db68      	blt.n	10001f50 <BuildStateMachineTables+0x5a4>
10001e7e:	213f      	movs	r1, #63	; 0x3f
10001e80:	4019      	ands	r1, r3
10001e82:	4689      	mov	r9, r1
10001e84:	429a      	cmp	r2, r3
10001e86:	d01f      	beq.n	10001ec8 <BuildStateMachineTables+0x51c>
10001e88:	009a      	lsls	r2, r3, #2
10001e8a:	18d3      	adds	r3, r2, r3
10001e8c:	2280      	movs	r2, #128	; 0x80
10001e8e:	009b      	lsls	r3, r3, #2
10001e90:	4453      	add	r3, sl
10001e92:	691b      	ldr	r3, [r3, #16]
10001e94:	421a      	tst	r2, r3
10001e96:	d00d      	beq.n	10001eb4 <BuildStateMachineTables+0x508>
10001e98:	2180      	movs	r1, #128	; 0x80
10001e9a:	001a      	movs	r2, r3
10001e9c:	438a      	bics	r2, r1
10001e9e:	3977      	subs	r1, #119	; 0x77
10001ea0:	1a8a      	subs	r2, r1, r2
10001ea2:	3908      	subs	r1, #8
10001ea4:	4091      	lsls	r1, r2
10001ea6:	000a      	movs	r2, r1
10001ea8:	9803      	ldr	r0, [sp, #12]
10001eaa:	a909      	add	r1, sp, #36	; 0x24
10001eac:	5c09      	ldrb	r1, [r1, r0]
10001eae:	430a      	orrs	r2, r1
10001eb0:	a909      	add	r1, sp, #36	; 0x24
10001eb2:	540a      	strb	r2, [r1, r0]
10001eb4:	2280      	movs	r2, #128	; 0x80
10001eb6:	4393      	bics	r3, r2
10001eb8:	2b01      	cmp	r3, #1
10001eba:	d100      	bne.n	10001ebe <BuildStateMachineTables+0x512>
10001ebc:	e084      	b.n	10001fc8 <BuildStateMachineTables+0x61c>
10001ebe:	2b09      	cmp	r3, #9
10001ec0:	d06c      	beq.n	10001f9c <BuildStateMachineTables+0x5f0>
10001ec2:	2b00      	cmp	r3, #0
10001ec4:	d100      	bne.n	10001ec8 <BuildStateMachineTables+0x51c>
10001ec6:	2701      	movs	r7, #1
10001ec8:	ab08      	add	r3, sp, #32
10001eca:	791c      	ldrb	r4, [r3, #4]
10001ecc:	7958      	ldrb	r0, [r3, #5]
10001ece:	2d00      	cmp	r5, #0
10001ed0:	dd32      	ble.n	10001f38 <BuildStateMachineTables+0x58c>
10001ed2:	2200      	movs	r2, #0
10001ed4:	4b41      	ldr	r3, [pc, #260]	; (10001fdc <BuildStateMachineTables+0x630>)
10001ed6:	e003      	b.n	10001ee0 <BuildStateMachineTables+0x534>
10001ed8:	3201      	adds	r2, #1
10001eda:	3302      	adds	r3, #2
10001edc:	42aa      	cmp	r2, r5
10001ede:	d02b      	beq.n	10001f38 <BuildStateMachineTables+0x58c>
10001ee0:	7819      	ldrb	r1, [r3, #0]
10001ee2:	42a1      	cmp	r1, r4
10001ee4:	d1f8      	bne.n	10001ed8 <BuildStateMachineTables+0x52c>
10001ee6:	7859      	ldrb	r1, [r3, #1]
10001ee8:	4281      	cmp	r1, r0
10001eea:	d1f5      	bne.n	10001ed8 <BuildStateMachineTables+0x52c>
10001eec:	9901      	ldr	r1, [sp, #4]
10001eee:	023f      	lsls	r7, r7, #8
10001ef0:	0188      	lsls	r0, r1, #6
10001ef2:	4649      	mov	r1, r9
10001ef4:	4308      	orrs	r0, r1
10001ef6:	4641      	mov	r1, r8
10001ef8:	01c9      	lsls	r1, r1, #7
10001efa:	4308      	orrs	r0, r1
10001efc:	9902      	ldr	r1, [sp, #8]
10001efe:	9b07      	ldr	r3, [sp, #28]
10001f00:	4338      	orrs	r0, r7
10001f02:	024f      	lsls	r7, r1, #9
10001f04:	199b      	adds	r3, r3, r6
10001f06:	4936      	ldr	r1, [pc, #216]	; (10001fe0 <BuildStateMachineTables+0x634>)
10001f08:	4338      	orrs	r0, r7
10001f0a:	0292      	lsls	r2, r2, #10
10001f0c:	005b      	lsls	r3, r3, #1
10001f0e:	4302      	orrs	r2, r0
10001f10:	52ca      	strh	r2, [r1, r3]
10001f12:	2380      	movs	r3, #128	; 0x80
10001f14:	3601      	adds	r6, #1
10001f16:	005b      	lsls	r3, r3, #1
10001f18:	429e      	cmp	r6, r3
10001f1a:	d000      	beq.n	10001f1e <BuildStateMachineTables+0x572>
10001f1c:	e710      	b.n	10001d40 <BuildStateMachineTables+0x394>
10001f1e:	9b05      	ldr	r3, [sp, #20]
10001f20:	3301      	adds	r3, #1
10001f22:	9305      	str	r3, [sp, #20]
10001f24:	2b28      	cmp	r3, #40	; 0x28
10001f26:	d000      	beq.n	10001f2a <BuildStateMachineTables+0x57e>
10001f28:	e702      	b.n	10001d30 <BuildStateMachineTables+0x384>
10001f2a:	b00b      	add	sp, #44	; 0x2c
10001f2c:	bcf0      	pop	{r4, r5, r6, r7}
10001f2e:	46bb      	mov	fp, r7
10001f30:	46b2      	mov	sl, r6
10001f32:	46a9      	mov	r9, r5
10001f34:	46a0      	mov	r8, r4
10001f36:	bdf0      	pop	{r4, r5, r6, r7, pc}
10001f38:	4928      	ldr	r1, [pc, #160]	; (10001fdc <BuildStateMachineTables+0x630>)
10001f3a:	4a27      	ldr	r2, [pc, #156]	; (10001fd8 <BuildStateMachineTables+0x62c>)
10001f3c:	468c      	mov	ip, r1
10001f3e:	1c6b      	adds	r3, r5, #1
10001f40:	6013      	str	r3, [r2, #0]
10001f42:	006a      	lsls	r2, r5, #1
10001f44:	548c      	strb	r4, [r1, r2]
10001f46:	4462      	add	r2, ip
10001f48:	7050      	strb	r0, [r2, #1]
10001f4a:	002a      	movs	r2, r5
10001f4c:	001d      	movs	r5, r3
10001f4e:	e7cd      	b.n	10001eec <BuildStateMachineTables+0x540>
10001f50:	2300      	movs	r3, #0
10001f52:	4699      	mov	r9, r3
10001f54:	3301      	adds	r3, #1
10001f56:	4698      	mov	r8, r3
10001f58:	2300      	movs	r3, #0
10001f5a:	e793      	b.n	10001e84 <BuildStateMachineTables+0x4d8>
10001f5c:	2300      	movs	r3, #0
10001f5e:	2700      	movs	r7, #0
10001f60:	469c      	mov	ip, r3
10001f62:	9302      	str	r3, [sp, #8]
10001f64:	9301      	str	r3, [sp, #4]
10001f66:	9303      	str	r3, [sp, #12]
10001f68:	0093      	lsls	r3, r2, #2
10001f6a:	e718      	b.n	10001d9e <BuildStateMachineTables+0x3f2>
10001f6c:	0039      	movs	r1, r7
10001f6e:	2080      	movs	r0, #128	; 0x80
10001f70:	4381      	bics	r1, r0
10001f72:	3877      	subs	r0, #119	; 0x77
10001f74:	1a41      	subs	r1, r0, r1
10001f76:	3808      	subs	r0, #8
10001f78:	4088      	lsls	r0, r1
10001f7a:	b2c1      	uxtb	r1, r0
10001f7c:	468c      	mov	ip, r1
10001f7e:	4660      	mov	r0, ip
10001f80:	a908      	add	r1, sp, #32
10001f82:	7108      	strb	r0, [r1, #4]
10001f84:	2180      	movs	r1, #128	; 0x80
10001f86:	438f      	bics	r7, r1
10001f88:	2f01      	cmp	r7, #1
10001f8a:	d000      	beq.n	10001f8e <BuildStateMachineTables+0x5e2>
10001f8c:	e6fd      	b.n	10001d8a <BuildStateMachineTables+0x3de>
10001f8e:	2101      	movs	r1, #1
10001f90:	9102      	str	r1, [sp, #8]
10001f92:	2100      	movs	r1, #0
10001f94:	2700      	movs	r7, #0
10001f96:	9101      	str	r1, [sp, #4]
10001f98:	9103      	str	r1, [sp, #12]
10001f9a:	e700      	b.n	10001d9e <BuildStateMachineTables+0x3f2>
10001f9c:	2301      	movs	r3, #1
10001f9e:	9301      	str	r3, [sp, #4]
10001fa0:	e792      	b.n	10001ec8 <BuildStateMachineTables+0x51c>
10001fa2:	2100      	movs	r1, #0
10001fa4:	468c      	mov	ip, r1
10001fa6:	9102      	str	r1, [sp, #8]
10001fa8:	3101      	adds	r1, #1
10001faa:	2700      	movs	r7, #0
10001fac:	9101      	str	r1, [sp, #4]
10001fae:	9103      	str	r1, [sp, #12]
10001fb0:	e6f5      	b.n	10001d9e <BuildStateMachineTables+0x3f2>
10001fb2:	2101      	movs	r1, #1
10001fb4:	9101      	str	r1, [sp, #4]
10001fb6:	9103      	str	r1, [sp, #12]
10001fb8:	e756      	b.n	10001e68 <BuildStateMachineTables+0x4bc>
10001fba:	2201      	movs	r2, #1
10001fbc:	9201      	str	r2, [sp, #4]
10001fbe:	9203      	str	r2, [sp, #12]
10001fc0:	e720      	b.n	10001e04 <BuildStateMachineTables+0x458>
10001fc2:	2201      	movs	r2, #1
10001fc4:	9202      	str	r2, [sp, #8]
10001fc6:	e71d      	b.n	10001e04 <BuildStateMachineTables+0x458>
10001fc8:	2301      	movs	r3, #1
10001fca:	9302      	str	r3, [sp, #8]
10001fcc:	e77c      	b.n	10001ec8 <BuildStateMachineTables+0x51c>
10001fce:	2101      	movs	r1, #1
10001fd0:	9102      	str	r1, [sp, #8]
10001fd2:	e749      	b.n	10001e68 <BuildStateMachineTables+0x4bc>
10001fd4:	200260ec 	.word	0x200260ec
10001fd8:	200275a8 	.word	0x200275a8
10001fdc:	20027528 	.word	0x20027528
10001fe0:	200010c4 	.word	0x200010c4

10001fe4 <CheckFormatted>:
10001fe4:	b570      	push	{r4, r5, r6, lr}
10001fe6:	b09e      	sub	sp, #120	; 0x78
10001fe8:	0004      	movs	r4, r0
10001fea:	2258      	movs	r2, #88	; 0x58
10001fec:	4950      	ldr	r1, [pc, #320]	; (10002130 <CheckFormatted+0x14c>)
10001fee:	a808      	add	r0, sp, #32
10001ff0:	f002 fbc4 	bl	1000477c <__wrap___aeabi_memcpy>
10001ff4:	23ff      	movs	r3, #255	; 0xff
10001ff6:	025b      	lsls	r3, r3, #9
10001ff8:	18e5      	adds	r5, r4, r3
10001ffa:	2210      	movs	r2, #16
10001ffc:	0028      	movs	r0, r5
10001ffe:	a908      	add	r1, sp, #32
10002000:	f003 f8aa 	bl	10005158 <__memcmp_veneer>
10002004:	2300      	movs	r3, #0
10002006:	2800      	cmp	r0, #0
10002008:	d102      	bne.n	10002010 <CheckFormatted+0x2c>
1000200a:	0018      	movs	r0, r3
1000200c:	b01e      	add	sp, #120	; 0x78
1000200e:	bd70      	pop	{r4, r5, r6, pc}
10002010:	23f1      	movs	r3, #241	; 0xf1
10002012:	22f0      	movs	r2, #240	; 0xf0
10002014:	025b      	lsls	r3, r3, #9
10002016:	18e0      	adds	r0, r4, r3
10002018:	2100      	movs	r1, #0
1000201a:	0152      	lsls	r2, r2, #5
1000201c:	f002 fba8 	bl	10004770 <__wrap_memset>
10002020:	0028      	movs	r0, r5
10002022:	2258      	movs	r2, #88	; 0x58
10002024:	a908      	add	r1, sp, #32
10002026:	f002 fba9 	bl	1000477c <__wrap___aeabi_memcpy>
1000202a:	2100      	movs	r1, #0
1000202c:	2220      	movs	r2, #32
1000202e:	4668      	mov	r0, sp
10002030:	f002 fb9e 	bl	10004770 <__wrap_memset>
10002034:	4b3f      	ldr	r3, [pc, #252]	; (10002134 <CheckFormatted+0x150>)
10002036:	4a40      	ldr	r2, [pc, #256]	; (10002138 <CheckFormatted+0x154>)
10002038:	9300      	str	r3, [sp, #0]
1000203a:	ab01      	add	r3, sp, #4
1000203c:	ca23      	ldmia	r2!, {r0, r1, r5}
1000203e:	c323      	stmia	r3!, {r0, r1, r5}
10002040:	4b3e      	ldr	r3, [pc, #248]	; (1000213c <CheckFormatted+0x158>)
10002042:	466a      	mov	r2, sp
10002044:	9304      	str	r3, [sp, #16]
10002046:	2309      	movs	r3, #9
10002048:	7513      	strb	r3, [r2, #20]
1000204a:	2302      	movs	r3, #2
1000204c:	8313      	strh	r3, [r2, #24]
1000204e:	23fd      	movs	r3, #253	; 0xfd
10002050:	2501      	movs	r5, #1
10002052:	025b      	lsls	r3, r3, #9
10002054:	4669      	mov	r1, sp
10002056:	75d5      	strb	r5, [r2, #23]
10002058:	18e0      	adds	r0, r4, r3
1000205a:	2220      	movs	r2, #32
1000205c:	f002 fb8e 	bl	1000477c <__wrap___aeabi_memcpy>
10002060:	23c6      	movs	r3, #198	; 0xc6
10002062:	22b0      	movs	r2, #176	; 0xb0
10002064:	025b      	lsls	r3, r3, #9
10002066:	4936      	ldr	r1, [pc, #216]	; (10002140 <CheckFormatted+0x15c>)
10002068:	0092      	lsls	r2, r2, #2
1000206a:	18e0      	adds	r0, r4, r3
1000206c:	f002 fb86 	bl	1000477c <__wrap___aeabi_memcpy>
10002070:	23fe      	movs	r3, #254	; 0xfe
10002072:	002a      	movs	r2, r5
10002074:	025b      	lsls	r3, r3, #9
10002076:	18e1      	adds	r1, r4, r3
10002078:	084b      	lsrs	r3, r1, #1
1000207a:	425b      	negs	r3, r3
1000207c:	401a      	ands	r2, r3
1000207e:	421d      	tst	r5, r3
10002080:	d053      	beq.n	1000212a <CheckFormatted+0x146>
10002082:	23fe      	movs	r3, #254	; 0xfe
10002084:	2004      	movs	r0, #4
10002086:	025b      	lsls	r3, r3, #9
10002088:	4240      	negs	r0, r0
1000208a:	52e0      	strh	r0, [r4, r3]
1000208c:	0013      	movs	r3, r2
1000208e:	20fe      	movs	r0, #254	; 0xfe
10002090:	2680      	movs	r6, #128	; 0x80
10002092:	0200      	lsls	r0, r0, #8
10002094:	4684      	mov	ip, r0
10002096:	0076      	lsls	r6, r6, #1
10002098:	1ab6      	subs	r6, r6, r2
1000209a:	4462      	add	r2, ip
1000209c:	0052      	lsls	r2, r2, #1
1000209e:	0870      	lsrs	r0, r6, #1
100020a0:	18a2      	adds	r2, r4, r2
100020a2:	0080      	lsls	r0, r0, #2
100020a4:	4d27      	ldr	r5, [pc, #156]	; (10002144 <CheckFormatted+0x160>)
100020a6:	1880      	adds	r0, r0, r2
100020a8:	c220      	stmia	r2!, {r5}
100020aa:	4282      	cmp	r2, r0
100020ac:	d1fc      	bne.n	100020a8 <CheckFormatted+0xc4>
100020ae:	2201      	movs	r2, #1
100020b0:	0030      	movs	r0, r6
100020b2:	4390      	bics	r0, r2
100020b4:	181b      	adds	r3, r3, r0
100020b6:	4286      	cmp	r6, r0
100020b8:	d003      	beq.n	100020c2 <CheckFormatted+0xde>
100020ba:	2204      	movs	r2, #4
100020bc:	005b      	lsls	r3, r3, #1
100020be:	4252      	negs	r2, r2
100020c0:	525a      	strh	r2, [r3, r1]
100020c2:	2306      	movs	r3, #6
100020c4:	21f1      	movs	r1, #241	; 0xf1
100020c6:	4a20      	ldr	r2, [pc, #128]	; (10002148 <CheckFormatted+0x164>)
100020c8:	425b      	negs	r3, r3
100020ca:	52a3      	strh	r3, [r4, r2]
100020cc:	4a1f      	ldr	r2, [pc, #124]	; (1000214c <CheckFormatted+0x168>)
100020ce:	52a3      	strh	r3, [r4, r2]
100020d0:	4a1f      	ldr	r2, [pc, #124]	; (10002150 <CheckFormatted+0x16c>)
100020d2:	52a3      	strh	r3, [r4, r2]
100020d4:	4a1f      	ldr	r2, [pc, #124]	; (10002154 <CheckFormatted+0x170>)
100020d6:	52a1      	strh	r1, [r4, r2]
100020d8:	4a1f      	ldr	r2, [pc, #124]	; (10002158 <CheckFormatted+0x174>)
100020da:	3101      	adds	r1, #1
100020dc:	52a1      	strh	r1, [r4, r2]
100020de:	4a1f      	ldr	r2, [pc, #124]	; (1000215c <CheckFormatted+0x178>)
100020e0:	3101      	adds	r1, #1
100020e2:	52a1      	strh	r1, [r4, r2]
100020e4:	4a1e      	ldr	r2, [pc, #120]	; (10002160 <CheckFormatted+0x17c>)
100020e6:	3101      	adds	r1, #1
100020e8:	52a1      	strh	r1, [r4, r2]
100020ea:	4a1e      	ldr	r2, [pc, #120]	; (10002164 <CheckFormatted+0x180>)
100020ec:	3101      	adds	r1, #1
100020ee:	52a1      	strh	r1, [r4, r2]
100020f0:	4a1d      	ldr	r2, [pc, #116]	; (10002168 <CheckFormatted+0x184>)
100020f2:	3101      	adds	r1, #1
100020f4:	52a1      	strh	r1, [r4, r2]
100020f6:	4a1d      	ldr	r2, [pc, #116]	; (1000216c <CheckFormatted+0x188>)
100020f8:	3101      	adds	r1, #1
100020fa:	52a1      	strh	r1, [r4, r2]
100020fc:	4a1c      	ldr	r2, [pc, #112]	; (10002170 <CheckFormatted+0x18c>)
100020fe:	3101      	adds	r1, #1
10002100:	52a1      	strh	r1, [r4, r2]
10002102:	4a1c      	ldr	r2, [pc, #112]	; (10002174 <CheckFormatted+0x190>)
10002104:	3101      	adds	r1, #1
10002106:	52a1      	strh	r1, [r4, r2]
10002108:	4a1b      	ldr	r2, [pc, #108]	; (10002178 <CheckFormatted+0x194>)
1000210a:	3101      	adds	r1, #1
1000210c:	52a1      	strh	r1, [r4, r2]
1000210e:	4a1b      	ldr	r2, [pc, #108]	; (1000217c <CheckFormatted+0x198>)
10002110:	3101      	adds	r1, #1
10002112:	52a1      	strh	r1, [r4, r2]
10002114:	4a1a      	ldr	r2, [pc, #104]	; (10002180 <CheckFormatted+0x19c>)
10002116:	3101      	adds	r1, #1
10002118:	52a1      	strh	r1, [r4, r2]
1000211a:	4a1a      	ldr	r2, [pc, #104]	; (10002184 <CheckFormatted+0x1a0>)
1000211c:	3935      	subs	r1, #53	; 0x35
1000211e:	52a1      	strh	r1, [r4, r2]
10002120:	4a19      	ldr	r2, [pc, #100]	; (10002188 <CheckFormatted+0x1a4>)
10002122:	52a3      	strh	r3, [r4, r2]
10002124:	23c1      	movs	r3, #193	; 0xc1
10002126:	061b      	lsls	r3, r3, #24
10002128:	e76f      	b.n	1000200a <CheckFormatted+0x26>
1000212a:	2300      	movs	r3, #0
1000212c:	e7af      	b.n	1000208e <CheckFormatted+0xaa>
1000212e:	46c0      	nop			; (mov r8, r8)
10002130:	10005434 	.word	0x10005434
10002134:	00c60033 	.word	0x00c60033
10002138:	10005424 	.word	0x10005424
1000213c:	02032120 	.word	0x02032120
10002140:	1000548c 	.word	0x1000548c
10002144:	fffcfffc 	.word	0xfffcfffc
10002148:	0001fdfe 	.word	0x0001fdfe
1000214c:	0001fdfc 	.word	0x0001fdfc
10002150:	0001fde2 	.word	0x0001fde2
10002154:	0001fde4 	.word	0x0001fde4
10002158:	0001fde6 	.word	0x0001fde6
1000215c:	0001fde8 	.word	0x0001fde8
10002160:	0001fdea 	.word	0x0001fdea
10002164:	0001fdec 	.word	0x0001fdec
10002168:	0001fdee 	.word	0x0001fdee
1000216c:	0001fdf0 	.word	0x0001fdf0
10002170:	0001fdf2 	.word	0x0001fdf2
10002174:	0001fdf4 	.word	0x0001fdf4
10002178:	0001fdf6 	.word	0x0001fdf6
1000217c:	0001fdf8 	.word	0x0001fdf8
10002180:	0001fdfa 	.word	0x0001fdfa
10002184:	0001fd8c 	.word	0x0001fd8c
10002188:	0001fd8e 	.word	0x0001fd8e

1000218c <setPixelSSD1331>:
1000218c:	004b      	lsls	r3, r1, #1
1000218e:	185b      	adds	r3, r3, r1
10002190:	015b      	lsls	r3, r3, #5
10002192:	1818      	adds	r0, r3, r0
10002194:	4b03      	ldr	r3, [pc, #12]	; (100021a4 <setPixelSSD1331+0x18>)
10002196:	0040      	lsls	r0, r0, #1
10002198:	0a11      	lsrs	r1, r2, #8
1000219a:	5419      	strb	r1, [r3, r0]
1000219c:	3001      	adds	r0, #1
1000219e:	541a      	strb	r2, [r3, r0]
100021a0:	4770      	bx	lr
100021a2:	46c0      	nop			; (mov r8, r8)
100021a4:	20027b88 	.word	0x20027b88

100021a8 <updateSSD1331>:
100021a8:	b5f0      	push	{r4, r5, r6, r7, lr}
100021aa:	46c6      	mov	lr, r8
100021ac:	b500      	push	{lr}
100021ae:	b082      	sub	sp, #8
100021b0:	466b      	mov	r3, sp
100021b2:	26d0      	movs	r6, #208	; 0xd0
100021b4:	2780      	movs	r7, #128	; 0x80
100021b6:	1ddc      	adds	r4, r3, #7
100021b8:	2315      	movs	r3, #21
100021ba:	4d1c      	ldr	r5, [pc, #112]	; (1000222c <updateSSD1331+0x84>)
100021bc:	0636      	lsls	r6, r6, #24
100021be:	01ff      	lsls	r7, r7, #7
100021c0:	0021      	movs	r1, r4
100021c2:	61b7      	str	r7, [r6, #24]
100021c4:	2201      	movs	r2, #1
100021c6:	7023      	strb	r3, [r4, #0]
100021c8:	0028      	movs	r0, r5
100021ca:	f002 ffed 	bl	100051a8 <__spi_write_blocking_veneer>
100021ce:	2300      	movs	r3, #0
100021d0:	0021      	movs	r1, r4
100021d2:	7023      	strb	r3, [r4, #0]
100021d4:	2201      	movs	r2, #1
100021d6:	0028      	movs	r0, r5
100021d8:	4698      	mov	r8, r3
100021da:	f002 ffe5 	bl	100051a8 <__spi_write_blocking_veneer>
100021de:	235f      	movs	r3, #95	; 0x5f
100021e0:	0021      	movs	r1, r4
100021e2:	7023      	strb	r3, [r4, #0]
100021e4:	2201      	movs	r2, #1
100021e6:	0028      	movs	r0, r5
100021e8:	f002 ffde 	bl	100051a8 <__spi_write_blocking_veneer>
100021ec:	2375      	movs	r3, #117	; 0x75
100021ee:	0021      	movs	r1, r4
100021f0:	7023      	strb	r3, [r4, #0]
100021f2:	2201      	movs	r2, #1
100021f4:	0028      	movs	r0, r5
100021f6:	f002 ffd7 	bl	100051a8 <__spi_write_blocking_veneer>
100021fa:	4643      	mov	r3, r8
100021fc:	0021      	movs	r1, r4
100021fe:	7023      	strb	r3, [r4, #0]
10002200:	2201      	movs	r2, #1
10002202:	0028      	movs	r0, r5
10002204:	f002 ffd0 	bl	100051a8 <__spi_write_blocking_veneer>
10002208:	233f      	movs	r3, #63	; 0x3f
1000220a:	0021      	movs	r1, r4
1000220c:	7023      	strb	r3, [r4, #0]
1000220e:	2201      	movs	r2, #1
10002210:	0028      	movs	r0, r5
10002212:	f002 ffc9 	bl	100051a8 <__spi_write_blocking_veneer>
10002216:	22c0      	movs	r2, #192	; 0xc0
10002218:	0028      	movs	r0, r5
1000221a:	4905      	ldr	r1, [pc, #20]	; (10002230 <updateSSD1331+0x88>)
1000221c:	6177      	str	r7, [r6, #20]
1000221e:	0192      	lsls	r2, r2, #6
10002220:	f002 ffc2 	bl	100051a8 <__spi_write_blocking_veneer>
10002224:	b002      	add	sp, #8
10002226:	bc80      	pop	{r7}
10002228:	46b8      	mov	r8, r7
1000222a:	bdf0      	pop	{r4, r5, r6, r7, pc}
1000222c:	4003c000 	.word	0x4003c000
10002230:	20027b88 	.word	0x20027b88

10002234 <ssd1331_init>:
10002234:	b5f0      	push	{r4, r5, r6, r7, lr}
10002236:	46de      	mov	lr, fp
10002238:	4657      	mov	r7, sl
1000223a:	464e      	mov	r6, r9
1000223c:	4645      	mov	r5, r8
1000223e:	b5e0      	push	{r5, r6, r7, lr}
10002240:	26d0      	movs	r6, #208	; 0xd0
10002242:	2780      	movs	r7, #128	; 0x80
10002244:	2480      	movs	r4, #128	; 0x80
10002246:	b083      	sub	sp, #12
10002248:	0636      	lsls	r6, r6, #24
1000224a:	01ff      	lsls	r7, r7, #7
1000224c:	200e      	movs	r0, #14
1000224e:	01a4      	lsls	r4, r4, #6
10002250:	f000 fa7a 	bl	10002748 <gpio_init>
10002254:	6277      	str	r7, [r6, #36]	; 0x24
10002256:	200d      	movs	r0, #13
10002258:	6177      	str	r7, [r6, #20]
1000225a:	f000 fa75 	bl	10002748 <gpio_init>
1000225e:	6274      	str	r4, [r6, #36]	; 0x24
10002260:	2032      	movs	r0, #50	; 0x32
10002262:	61b4      	str	r4, [r6, #24]
10002264:	f000 ff7c 	bl	10003160 <sleep_ms>
10002268:	466b      	mov	r3, sp
1000226a:	6174      	str	r4, [r6, #20]
1000226c:	1ddc      	adds	r4, r3, #7
1000226e:	23ae      	movs	r3, #174	; 0xae
10002270:	4da7      	ldr	r5, [pc, #668]	; (10002510 <ssd1331_init+0x2dc>)
10002272:	0021      	movs	r1, r4
10002274:	61b7      	str	r7, [r6, #24]
10002276:	2201      	movs	r2, #1
10002278:	7023      	strb	r3, [r4, #0]
1000227a:	0028      	movs	r0, r5
1000227c:	f002 ff94 	bl	100051a8 <__spi_write_blocking_veneer>
10002280:	23a0      	movs	r3, #160	; 0xa0
10002282:	0021      	movs	r1, r4
10002284:	7023      	strb	r3, [r4, #0]
10002286:	2201      	movs	r2, #1
10002288:	0028      	movs	r0, r5
1000228a:	f002 ff8d 	bl	100051a8 <__spi_write_blocking_veneer>
1000228e:	2372      	movs	r3, #114	; 0x72
10002290:	0021      	movs	r1, r4
10002292:	7023      	strb	r3, [r4, #0]
10002294:	2201      	movs	r2, #1
10002296:	0028      	movs	r0, r5
10002298:	f002 ff86 	bl	100051a8 <__spi_write_blocking_veneer>
1000229c:	23a1      	movs	r3, #161	; 0xa1
1000229e:	0021      	movs	r1, r4
100022a0:	7023      	strb	r3, [r4, #0]
100022a2:	2201      	movs	r2, #1
100022a4:	0028      	movs	r0, r5
100022a6:	f002 ff7f 	bl	100051a8 <__spi_write_blocking_veneer>
100022aa:	2300      	movs	r3, #0
100022ac:	0021      	movs	r1, r4
100022ae:	7023      	strb	r3, [r4, #0]
100022b0:	2201      	movs	r2, #1
100022b2:	0028      	movs	r0, r5
100022b4:	4698      	mov	r8, r3
100022b6:	f002 ff77 	bl	100051a8 <__spi_write_blocking_veneer>
100022ba:	23a2      	movs	r3, #162	; 0xa2
100022bc:	0021      	movs	r1, r4
100022be:	7023      	strb	r3, [r4, #0]
100022c0:	2201      	movs	r2, #1
100022c2:	0028      	movs	r0, r5
100022c4:	f002 ff70 	bl	100051a8 <__spi_write_blocking_veneer>
100022c8:	4643      	mov	r3, r8
100022ca:	0021      	movs	r1, r4
100022cc:	7023      	strb	r3, [r4, #0]
100022ce:	2201      	movs	r2, #1
100022d0:	0028      	movs	r0, r5
100022d2:	f002 ff69 	bl	100051a8 <__spi_write_blocking_veneer>
100022d6:	23a4      	movs	r3, #164	; 0xa4
100022d8:	0021      	movs	r1, r4
100022da:	7023      	strb	r3, [r4, #0]
100022dc:	2201      	movs	r2, #1
100022de:	0028      	movs	r0, r5
100022e0:	469b      	mov	fp, r3
100022e2:	f002 ff61 	bl	100051a8 <__spi_write_blocking_veneer>
100022e6:	23a8      	movs	r3, #168	; 0xa8
100022e8:	0021      	movs	r1, r4
100022ea:	7023      	strb	r3, [r4, #0]
100022ec:	2201      	movs	r2, #1
100022ee:	0028      	movs	r0, r5
100022f0:	f002 ff5a 	bl	100051a8 <__spi_write_blocking_veneer>
100022f4:	233f      	movs	r3, #63	; 0x3f
100022f6:	0021      	movs	r1, r4
100022f8:	7023      	strb	r3, [r4, #0]
100022fa:	2201      	movs	r2, #1
100022fc:	0028      	movs	r0, r5
100022fe:	469a      	mov	sl, r3
10002300:	f002 ff52 	bl	100051a8 <__spi_write_blocking_veneer>
10002304:	23ad      	movs	r3, #173	; 0xad
10002306:	0021      	movs	r1, r4
10002308:	7023      	strb	r3, [r4, #0]
1000230a:	2201      	movs	r2, #1
1000230c:	0028      	movs	r0, r5
1000230e:	f002 ff4b 	bl	100051a8 <__spi_write_blocking_veneer>
10002312:	238e      	movs	r3, #142	; 0x8e
10002314:	0021      	movs	r1, r4
10002316:	7023      	strb	r3, [r4, #0]
10002318:	2201      	movs	r2, #1
1000231a:	0028      	movs	r0, r5
1000231c:	f002 ff44 	bl	100051a8 <__spi_write_blocking_veneer>
10002320:	23b0      	movs	r3, #176	; 0xb0
10002322:	0021      	movs	r1, r4
10002324:	7023      	strb	r3, [r4, #0]
10002326:	2201      	movs	r2, #1
10002328:	0028      	movs	r0, r5
1000232a:	f002 ff3d 	bl	100051a8 <__spi_write_blocking_veneer>
1000232e:	230b      	movs	r3, #11
10002330:	0021      	movs	r1, r4
10002332:	7023      	strb	r3, [r4, #0]
10002334:	2201      	movs	r2, #1
10002336:	0028      	movs	r0, r5
10002338:	f002 ff36 	bl	100051a8 <__spi_write_blocking_veneer>
1000233c:	23b1      	movs	r3, #177	; 0xb1
1000233e:	0021      	movs	r1, r4
10002340:	7023      	strb	r3, [r4, #0]
10002342:	2201      	movs	r2, #1
10002344:	0028      	movs	r0, r5
10002346:	f002 ff2f 	bl	100051a8 <__spi_write_blocking_veneer>
1000234a:	2331      	movs	r3, #49	; 0x31
1000234c:	0021      	movs	r1, r4
1000234e:	7023      	strb	r3, [r4, #0]
10002350:	2201      	movs	r2, #1
10002352:	0028      	movs	r0, r5
10002354:	f002 ff28 	bl	100051a8 <__spi_write_blocking_veneer>
10002358:	23b3      	movs	r3, #179	; 0xb3
1000235a:	0021      	movs	r1, r4
1000235c:	7023      	strb	r3, [r4, #0]
1000235e:	2201      	movs	r2, #1
10002360:	0028      	movs	r0, r5
10002362:	f002 ff21 	bl	100051a8 <__spi_write_blocking_veneer>
10002366:	23f0      	movs	r3, #240	; 0xf0
10002368:	0021      	movs	r1, r4
1000236a:	7023      	strb	r3, [r4, #0]
1000236c:	2201      	movs	r2, #1
1000236e:	0028      	movs	r0, r5
10002370:	f002 ff1a 	bl	100051a8 <__spi_write_blocking_veneer>
10002374:	238a      	movs	r3, #138	; 0x8a
10002376:	0021      	movs	r1, r4
10002378:	7023      	strb	r3, [r4, #0]
1000237a:	2201      	movs	r2, #1
1000237c:	0028      	movs	r0, r5
1000237e:	f002 ff13 	bl	100051a8 <__spi_write_blocking_veneer>
10002382:	2364      	movs	r3, #100	; 0x64
10002384:	0021      	movs	r1, r4
10002386:	7023      	strb	r3, [r4, #0]
10002388:	2201      	movs	r2, #1
1000238a:	0028      	movs	r0, r5
1000238c:	4699      	mov	r9, r3
1000238e:	f002 ff0b 	bl	100051a8 <__spi_write_blocking_veneer>
10002392:	238b      	movs	r3, #139	; 0x8b
10002394:	0021      	movs	r1, r4
10002396:	7023      	strb	r3, [r4, #0]
10002398:	2201      	movs	r2, #1
1000239a:	0028      	movs	r0, r5
1000239c:	f002 ff04 	bl	100051a8 <__spi_write_blocking_veneer>
100023a0:	2378      	movs	r3, #120	; 0x78
100023a2:	0021      	movs	r1, r4
100023a4:	7023      	strb	r3, [r4, #0]
100023a6:	2201      	movs	r2, #1
100023a8:	0028      	movs	r0, r5
100023aa:	f002 fefd 	bl	100051a8 <__spi_write_blocking_veneer>
100023ae:	238c      	movs	r3, #140	; 0x8c
100023b0:	0021      	movs	r1, r4
100023b2:	7023      	strb	r3, [r4, #0]
100023b4:	2201      	movs	r2, #1
100023b6:	0028      	movs	r0, r5
100023b8:	f002 fef6 	bl	100051a8 <__spi_write_blocking_veneer>
100023bc:	464b      	mov	r3, r9
100023be:	0021      	movs	r1, r4
100023c0:	7023      	strb	r3, [r4, #0]
100023c2:	2201      	movs	r2, #1
100023c4:	0028      	movs	r0, r5
100023c6:	f002 feef 	bl	100051a8 <__spi_write_blocking_veneer>
100023ca:	23bb      	movs	r3, #187	; 0xbb
100023cc:	0021      	movs	r1, r4
100023ce:	7023      	strb	r3, [r4, #0]
100023d0:	2201      	movs	r2, #1
100023d2:	0028      	movs	r0, r5
100023d4:	f002 fee8 	bl	100051a8 <__spi_write_blocking_veneer>
100023d8:	233a      	movs	r3, #58	; 0x3a
100023da:	0021      	movs	r1, r4
100023dc:	7023      	strb	r3, [r4, #0]
100023de:	2201      	movs	r2, #1
100023e0:	0028      	movs	r0, r5
100023e2:	f002 fee1 	bl	100051a8 <__spi_write_blocking_veneer>
100023e6:	23be      	movs	r3, #190	; 0xbe
100023e8:	0021      	movs	r1, r4
100023ea:	7023      	strb	r3, [r4, #0]
100023ec:	2201      	movs	r2, #1
100023ee:	0028      	movs	r0, r5
100023f0:	f002 feda 	bl	100051a8 <__spi_write_blocking_veneer>
100023f4:	233e      	movs	r3, #62	; 0x3e
100023f6:	0021      	movs	r1, r4
100023f8:	7023      	strb	r3, [r4, #0]
100023fa:	2201      	movs	r2, #1
100023fc:	0028      	movs	r0, r5
100023fe:	f002 fed3 	bl	100051a8 <__spi_write_blocking_veneer>
10002402:	2387      	movs	r3, #135	; 0x87
10002404:	0021      	movs	r1, r4
10002406:	7023      	strb	r3, [r4, #0]
10002408:	2201      	movs	r2, #1
1000240a:	0028      	movs	r0, r5
1000240c:	f002 fecc 	bl	100051a8 <__spi_write_blocking_veneer>
10002410:	2306      	movs	r3, #6
10002412:	0021      	movs	r1, r4
10002414:	7023      	strb	r3, [r4, #0]
10002416:	2201      	movs	r2, #1
10002418:	0028      	movs	r0, r5
1000241a:	f002 fec5 	bl	100051a8 <__spi_write_blocking_veneer>
1000241e:	2381      	movs	r3, #129	; 0x81
10002420:	0021      	movs	r1, r4
10002422:	7023      	strb	r3, [r4, #0]
10002424:	2201      	movs	r2, #1
10002426:	0028      	movs	r0, r5
10002428:	f002 febe 	bl	100051a8 <__spi_write_blocking_veneer>
1000242c:	23ff      	movs	r3, #255	; 0xff
1000242e:	0021      	movs	r1, r4
10002430:	7023      	strb	r3, [r4, #0]
10002432:	2201      	movs	r2, #1
10002434:	0028      	movs	r0, r5
10002436:	4699      	mov	r9, r3
10002438:	f002 feb6 	bl	100051a8 <__spi_write_blocking_veneer>
1000243c:	2382      	movs	r3, #130	; 0x82
1000243e:	0021      	movs	r1, r4
10002440:	7023      	strb	r3, [r4, #0]
10002442:	2201      	movs	r2, #1
10002444:	0028      	movs	r0, r5
10002446:	f002 feaf 	bl	100051a8 <__spi_write_blocking_veneer>
1000244a:	464b      	mov	r3, r9
1000244c:	0021      	movs	r1, r4
1000244e:	7023      	strb	r3, [r4, #0]
10002450:	2201      	movs	r2, #1
10002452:	0028      	movs	r0, r5
10002454:	f002 fea8 	bl	100051a8 <__spi_write_blocking_veneer>
10002458:	2383      	movs	r3, #131	; 0x83
1000245a:	0021      	movs	r1, r4
1000245c:	7023      	strb	r3, [r4, #0]
1000245e:	2201      	movs	r2, #1
10002460:	0028      	movs	r0, r5
10002462:	f002 fea1 	bl	100051a8 <__spi_write_blocking_veneer>
10002466:	464b      	mov	r3, r9
10002468:	0021      	movs	r1, r4
1000246a:	7023      	strb	r3, [r4, #0]
1000246c:	2201      	movs	r2, #1
1000246e:	0028      	movs	r0, r5
10002470:	f002 fe9a 	bl	100051a8 <__spi_write_blocking_veneer>
10002474:	23a6      	movs	r3, #166	; 0xa6
10002476:	0021      	movs	r1, r4
10002478:	7023      	strb	r3, [r4, #0]
1000247a:	2201      	movs	r2, #1
1000247c:	0028      	movs	r0, r5
1000247e:	f002 fe93 	bl	100051a8 <__spi_write_blocking_veneer>
10002482:	465b      	mov	r3, fp
10002484:	0021      	movs	r1, r4
10002486:	7023      	strb	r3, [r4, #0]
10002488:	2201      	movs	r2, #1
1000248a:	0028      	movs	r0, r5
1000248c:	f002 fe8c 	bl	100051a8 <__spi_write_blocking_veneer>
10002490:	23af      	movs	r3, #175	; 0xaf
10002492:	0021      	movs	r1, r4
10002494:	7023      	strb	r3, [r4, #0]
10002496:	2201      	movs	r2, #1
10002498:	0028      	movs	r0, r5
1000249a:	f002 fe85 	bl	100051a8 <__spi_write_blocking_veneer>
1000249e:	2315      	movs	r3, #21
100024a0:	0021      	movs	r1, r4
100024a2:	61b7      	str	r7, [r6, #24]
100024a4:	2201      	movs	r2, #1
100024a6:	7023      	strb	r3, [r4, #0]
100024a8:	0028      	movs	r0, r5
100024aa:	f002 fe7d 	bl	100051a8 <__spi_write_blocking_veneer>
100024ae:	4643      	mov	r3, r8
100024b0:	0021      	movs	r1, r4
100024b2:	7023      	strb	r3, [r4, #0]
100024b4:	2201      	movs	r2, #1
100024b6:	0028      	movs	r0, r5
100024b8:	f002 fe76 	bl	100051a8 <__spi_write_blocking_veneer>
100024bc:	235f      	movs	r3, #95	; 0x5f
100024be:	0021      	movs	r1, r4
100024c0:	7023      	strb	r3, [r4, #0]
100024c2:	2201      	movs	r2, #1
100024c4:	0028      	movs	r0, r5
100024c6:	f002 fe6f 	bl	100051a8 <__spi_write_blocking_veneer>
100024ca:	2375      	movs	r3, #117	; 0x75
100024cc:	0021      	movs	r1, r4
100024ce:	7023      	strb	r3, [r4, #0]
100024d0:	2201      	movs	r2, #1
100024d2:	0028      	movs	r0, r5
100024d4:	f002 fe68 	bl	100051a8 <__spi_write_blocking_veneer>
100024d8:	4643      	mov	r3, r8
100024da:	0021      	movs	r1, r4
100024dc:	7023      	strb	r3, [r4, #0]
100024de:	2201      	movs	r2, #1
100024e0:	0028      	movs	r0, r5
100024e2:	f002 fe61 	bl	100051a8 <__spi_write_blocking_veneer>
100024e6:	4653      	mov	r3, sl
100024e8:	0021      	movs	r1, r4
100024ea:	7023      	strb	r3, [r4, #0]
100024ec:	2201      	movs	r2, #1
100024ee:	0028      	movs	r0, r5
100024f0:	f002 fe5a 	bl	100051a8 <__spi_write_blocking_veneer>
100024f4:	22c0      	movs	r2, #192	; 0xc0
100024f6:	0028      	movs	r0, r5
100024f8:	4906      	ldr	r1, [pc, #24]	; (10002514 <ssd1331_init+0x2e0>)
100024fa:	6177      	str	r7, [r6, #20]
100024fc:	0192      	lsls	r2, r2, #6
100024fe:	f002 fe53 	bl	100051a8 <__spi_write_blocking_veneer>
10002502:	b003      	add	sp, #12
10002504:	bcf0      	pop	{r4, r5, r6, r7}
10002506:	46bb      	mov	fp, r7
10002508:	46b2      	mov	sl, r6
1000250a:	46a9      	mov	r9, r5
1000250c:	46a0      	mov	r8, r4
1000250e:	bdf0      	pop	{r4, r5, r6, r7, pc}
10002510:	4003c000 	.word	0x4003c000
10002514:	1000574c 	.word	0x1000574c

10002518 <UpdateDisplay>:
10002518:	2300      	movs	r3, #0
1000251a:	b500      	push	{lr}
1000251c:	b083      	sub	sp, #12
1000251e:	9300      	str	r3, [sp, #0]
10002520:	213c      	movs	r1, #60	; 0x3c
10002522:	4b03      	ldr	r3, [pc, #12]	; (10002530 <UpdateDisplay+0x18>)
10002524:	4a03      	ldr	r2, [pc, #12]	; (10002534 <UpdateDisplay+0x1c>)
10002526:	4804      	ldr	r0, [pc, #16]	; (10002538 <UpdateDisplay+0x20>)
10002528:	f002 fcf2 	bl	10004f10 <i2c_write_blocking>
1000252c:	b003      	add	sp, #12
1000252e:	bd00      	pop	{pc}
10002530:	00000401 	.word	0x00000401
10002534:	20000524 	.word	0x20000524
10002538:	200009d4 	.word	0x200009d4

1000253c <ClearDisplay>:
1000253c:	2280      	movs	r2, #128	; 0x80
1000253e:	b500      	push	{lr}
10002540:	4b08      	ldr	r3, [pc, #32]	; (10002564 <ClearDisplay+0x28>)
10002542:	b083      	sub	sp, #12
10002544:	2100      	movs	r1, #0
10002546:	6818      	ldr	r0, [r3, #0]
10002548:	00d2      	lsls	r2, r2, #3
1000254a:	f002 f911 	bl	10004770 <__wrap_memset>
1000254e:	2300      	movs	r3, #0
10002550:	213c      	movs	r1, #60	; 0x3c
10002552:	9300      	str	r3, [sp, #0]
10002554:	4a04      	ldr	r2, [pc, #16]	; (10002568 <ClearDisplay+0x2c>)
10002556:	4b05      	ldr	r3, [pc, #20]	; (1000256c <ClearDisplay+0x30>)
10002558:	4805      	ldr	r0, [pc, #20]	; (10002570 <ClearDisplay+0x34>)
1000255a:	f002 fcd9 	bl	10004f10 <i2c_write_blocking>
1000255e:	b003      	add	sp, #12
10002560:	bd00      	pop	{pc}
10002562:	46c0      	nop			; (mov r8, r8)
10002564:	20000520 	.word	0x20000520
10002568:	20000524 	.word	0x20000524
1000256c:	00000401 	.word	0x00000401
10002570:	200009d4 	.word	0x200009d4

10002574 <setPixel1306>:
10002574:	b570      	push	{r4, r5, r6, lr}
10002576:	2607      	movs	r6, #7
10002578:	0033      	movs	r3, r6
1000257a:	17cc      	asrs	r4, r1, #31
1000257c:	4023      	ands	r3, r4
1000257e:	185b      	adds	r3, r3, r1
10002580:	10db      	asrs	r3, r3, #3
10002582:	01db      	lsls	r3, r3, #7
10002584:	1818      	adds	r0, r3, r0
10002586:	4b09      	ldr	r3, [pc, #36]	; (100025ac <setPixel1306+0x38>)
10002588:	0f64      	lsrs	r4, r4, #29
1000258a:	681b      	ldr	r3, [r3, #0]
1000258c:	1909      	adds	r1, r1, r4
1000258e:	181d      	adds	r5, r3, r0
10002590:	5c18      	ldrb	r0, [r3, r0]
10002592:	2301      	movs	r3, #1
10002594:	4031      	ands	r1, r6
10002596:	1b09      	subs	r1, r1, r4
10002598:	408b      	lsls	r3, r1
1000259a:	2a00      	cmp	r2, #0
1000259c:	d003      	beq.n	100025a6 <setPixel1306+0x32>
1000259e:	4318      	orrs	r0, r3
100025a0:	b2c0      	uxtb	r0, r0
100025a2:	7028      	strb	r0, [r5, #0]
100025a4:	bd70      	pop	{r4, r5, r6, pc}
100025a6:	4398      	bics	r0, r3
100025a8:	e7fb      	b.n	100025a2 <setPixel1306+0x2e>
100025aa:	46c0      	nop			; (mov r8, r8)
100025ac:	20000520 	.word	0x20000520

100025b0 <gpio_irq_handler>:
100025b0:	23d0      	movs	r3, #208	; 0xd0
100025b2:	061b      	lsls	r3, r3, #24
100025b4:	b5f0      	push	{r4, r5, r6, r7, lr}
100025b6:	681e      	ldr	r6, [r3, #0]
100025b8:	46c6      	mov	lr, r8
100025ba:	1e73      	subs	r3, r6, #1
100025bc:	419e      	sbcs	r6, r3
100025be:	4273      	negs	r3, r6
100025c0:	2630      	movs	r6, #48	; 0x30
100025c2:	401e      	ands	r6, r3
100025c4:	4b16      	ldr	r3, [pc, #88]	; (10002620 <gpio_irq_handler+0x70>)
100025c6:	2400      	movs	r4, #0
100025c8:	469c      	mov	ip, r3
100025ca:	4b16      	ldr	r3, [pc, #88]	; (10002624 <gpio_irq_handler+0x74>)
100025cc:	2707      	movs	r7, #7
100025ce:	250f      	movs	r5, #15
100025d0:	4698      	mov	r8, r3
100025d2:	b500      	push	{lr}
100025d4:	4466      	add	r6, ip
100025d6:	08e0      	lsrs	r0, r4, #3
100025d8:	0003      	movs	r3, r0
100025da:	003a      	movs	r2, r7
100025dc:	3308      	adds	r3, #8
100025de:	009b      	lsls	r3, r3, #2
100025e0:	599b      	ldr	r3, [r3, r6]
100025e2:	4022      	ands	r2, r4
100025e4:	0092      	lsls	r2, r2, #2
100025e6:	40d3      	lsrs	r3, r2
100025e8:	0029      	movs	r1, r5
100025ea:	4019      	ands	r1, r3
100025ec:	421d      	tst	r5, r3
100025ee:	d010      	beq.n	10002612 <gpio_irq_handler+0x62>
100025f0:	000b      	movs	r3, r1
100025f2:	4093      	lsls	r3, r2
100025f4:	001a      	movs	r2, r3
100025f6:	303c      	adds	r0, #60	; 0x3c
100025f8:	4b0b      	ldr	r3, [pc, #44]	; (10002628 <gpio_irq_handler+0x78>)
100025fa:	0080      	lsls	r0, r0, #2
100025fc:	50c2      	str	r2, [r0, r3]
100025fe:	23d0      	movs	r3, #208	; 0xd0
10002600:	4642      	mov	r2, r8
10002602:	061b      	lsls	r3, r3, #24
10002604:	681b      	ldr	r3, [r3, #0]
10002606:	009b      	lsls	r3, r3, #2
10002608:	589b      	ldr	r3, [r3, r2]
1000260a:	2b00      	cmp	r3, #0
1000260c:	d001      	beq.n	10002612 <gpio_irq_handler+0x62>
1000260e:	0020      	movs	r0, r4
10002610:	4798      	blx	r3
10002612:	3401      	adds	r4, #1
10002614:	2c1e      	cmp	r4, #30
10002616:	d1de      	bne.n	100025d6 <gpio_irq_handler+0x26>
10002618:	bc80      	pop	{r7}
1000261a:	46b8      	mov	r8, r7
1000261c:	bdf0      	pop	{r4, r5, r6, r7, pc}
1000261e:	46c0      	nop			; (mov r8, r8)
10002620:	40014100 	.word	0x40014100
10002624:	200279f0 	.word	0x200279f0
10002628:	40014000 	.word	0x40014000

1000262c <gpio_set_function>:
1000262c:	4a09      	ldr	r2, [pc, #36]	; (10002654 <gpio_set_function+0x28>)
1000262e:	0083      	lsls	r3, r0, #2
10002630:	4694      	mov	ip, r2
10002632:	2240      	movs	r2, #64	; 0x40
10002634:	4463      	add	r3, ip
10002636:	b510      	push	{r4, lr}
10002638:	681c      	ldr	r4, [r3, #0]
1000263a:	00c0      	lsls	r0, r0, #3
1000263c:	4062      	eors	r2, r4
1000263e:	24c0      	movs	r4, #192	; 0xc0
10002640:	4014      	ands	r4, r2
10002642:	2280      	movs	r2, #128	; 0x80
10002644:	0152      	lsls	r2, r2, #5
10002646:	4313      	orrs	r3, r2
10002648:	601c      	str	r4, [r3, #0]
1000264a:	4b03      	ldr	r3, [pc, #12]	; (10002658 <gpio_set_function+0x2c>)
1000264c:	469c      	mov	ip, r3
1000264e:	4460      	add	r0, ip
10002650:	6041      	str	r1, [r0, #4]
10002652:	bd10      	pop	{r4, pc}
10002654:	4001c004 	.word	0x4001c004
10002658:	40014000 	.word	0x40014000

1000265c <gpio_set_pulls>:
1000265c:	4b0a      	ldr	r3, [pc, #40]	; (10002688 <gpio_set_pulls+0x2c>)
1000265e:	0080      	lsls	r0, r0, #2
10002660:	469c      	mov	ip, r3
10002662:	2304      	movs	r3, #4
10002664:	4460      	add	r0, ip
10002666:	2900      	cmp	r1, #0
10002668:	d001      	beq.n	1000266e <gpio_set_pulls+0x12>
1000266a:	230c      	movs	r3, #12
1000266c:	2108      	movs	r1, #8
1000266e:	2a00      	cmp	r2, #0
10002670:	d100      	bne.n	10002674 <gpio_set_pulls+0x18>
10002672:	000b      	movs	r3, r1
10002674:	6802      	ldr	r2, [r0, #0]
10002676:	4053      	eors	r3, r2
10002678:	220c      	movs	r2, #12
1000267a:	401a      	ands	r2, r3
1000267c:	2380      	movs	r3, #128	; 0x80
1000267e:	015b      	lsls	r3, r3, #5
10002680:	4318      	orrs	r0, r3
10002682:	6002      	str	r2, [r0, #0]
10002684:	4770      	bx	lr
10002686:	46c0      	nop			; (mov r8, r8)
10002688:	4001c004 	.word	0x4001c004

1000268c <gpio_set_irq_enabled_with_callback>:
1000268c:	b570      	push	{r4, r5, r6, lr}
1000268e:	0006      	movs	r6, r0
10002690:	20d0      	movs	r0, #208	; 0xd0
10002692:	0600      	lsls	r0, r0, #24
10002694:	6804      	ldr	r4, [r0, #0]
10002696:	08f5      	lsrs	r5, r6, #3
10002698:	1e60      	subs	r0, r4, #1
1000269a:	4184      	sbcs	r4, r0
1000269c:	2030      	movs	r0, #48	; 0x30
1000269e:	4264      	negs	r4, r4
100026a0:	4004      	ands	r4, r0
100026a2:	4814      	ldr	r0, [pc, #80]	; (100026f4 <gpio_set_irq_enabled_with_callback+0x68>)
100026a4:	4684      	mov	ip, r0
100026a6:	2007      	movs	r0, #7
100026a8:	4030      	ands	r0, r6
100026aa:	0080      	lsls	r0, r0, #2
100026ac:	4081      	lsls	r1, r0
100026ae:	0028      	movs	r0, r5
100026b0:	4e11      	ldr	r6, [pc, #68]	; (100026f8 <gpio_set_irq_enabled_with_callback+0x6c>)
100026b2:	303c      	adds	r0, #60	; 0x3c
100026b4:	4464      	add	r4, ip
100026b6:	0080      	lsls	r0, r0, #2
100026b8:	00ad      	lsls	r5, r5, #2
100026ba:	5181      	str	r1, [r0, r6]
100026bc:	1964      	adds	r4, r4, r5
100026be:	2a00      	cmp	r2, #0
100026c0:	d012      	beq.n	100026e8 <gpio_set_irq_enabled_with_callback+0x5c>
100026c2:	2280      	movs	r2, #128	; 0x80
100026c4:	0192      	lsls	r2, r2, #6
100026c6:	4314      	orrs	r4, r2
100026c8:	6021      	str	r1, [r4, #0]
100026ca:	22d0      	movs	r2, #208	; 0xd0
100026cc:	0612      	lsls	r2, r2, #24
100026ce:	6812      	ldr	r2, [r2, #0]
100026d0:	490a      	ldr	r1, [pc, #40]	; (100026fc <gpio_set_irq_enabled_with_callback+0x70>)
100026d2:	0092      	lsls	r2, r2, #2
100026d4:	5053      	str	r3, [r2, r1]
100026d6:	200d      	movs	r0, #13
100026d8:	4909      	ldr	r1, [pc, #36]	; (10002700 <gpio_set_irq_enabled_with_callback+0x74>)
100026da:	f001 fad3 	bl	10003c84 <irq_set_exclusive_handler>
100026de:	2101      	movs	r1, #1
100026e0:	200d      	movs	r0, #13
100026e2:	f001 faa9 	bl	10003c38 <irq_set_enabled>
100026e6:	bd70      	pop	{r4, r5, r6, pc}
100026e8:	22c0      	movs	r2, #192	; 0xc0
100026ea:	0192      	lsls	r2, r2, #6
100026ec:	4314      	orrs	r4, r2
100026ee:	6021      	str	r1, [r4, #0]
100026f0:	e7eb      	b.n	100026ca <gpio_set_irq_enabled_with_callback+0x3e>
100026f2:	46c0      	nop			; (mov r8, r8)
100026f4:	40014100 	.word	0x40014100
100026f8:	40014000 	.word	0x40014000
100026fc:	200279f0 	.word	0x200279f0
10002700:	100025b1 	.word	0x100025b1

10002704 <gpio_acknowledge_irq>:
10002704:	0002      	movs	r2, r0
10002706:	08c3      	lsrs	r3, r0, #3
10002708:	2007      	movs	r0, #7
1000270a:	4010      	ands	r0, r2
1000270c:	0080      	lsls	r0, r0, #2
1000270e:	4081      	lsls	r1, r0
10002710:	4a02      	ldr	r2, [pc, #8]	; (1000271c <gpio_acknowledge_irq+0x18>)
10002712:	333c      	adds	r3, #60	; 0x3c
10002714:	009b      	lsls	r3, r3, #2
10002716:	5099      	str	r1, [r3, r2]
10002718:	4770      	bx	lr
1000271a:	46c0      	nop			; (mov r8, r8)
1000271c:	40014000 	.word	0x40014000

10002720 <gpio_set_input_enabled>:
10002720:	4b08      	ldr	r3, [pc, #32]	; (10002744 <gpio_set_input_enabled+0x24>)
10002722:	0080      	lsls	r0, r0, #2
10002724:	469c      	mov	ip, r3
10002726:	4460      	add	r0, ip
10002728:	2900      	cmp	r1, #0
1000272a:	d005      	beq.n	10002738 <gpio_set_input_enabled+0x18>
1000272c:	2380      	movs	r3, #128	; 0x80
1000272e:	019b      	lsls	r3, r3, #6
10002730:	4318      	orrs	r0, r3
10002732:	2340      	movs	r3, #64	; 0x40
10002734:	6003      	str	r3, [r0, #0]
10002736:	4770      	bx	lr
10002738:	23c0      	movs	r3, #192	; 0xc0
1000273a:	019b      	lsls	r3, r3, #6
1000273c:	4318      	orrs	r0, r3
1000273e:	2340      	movs	r3, #64	; 0x40
10002740:	6003      	str	r3, [r0, #0]
10002742:	e7f8      	b.n	10002736 <gpio_set_input_enabled+0x16>
10002744:	4001c004 	.word	0x4001c004

10002748 <gpio_init>:
10002748:	2301      	movs	r3, #1
1000274a:	22d0      	movs	r2, #208	; 0xd0
1000274c:	4083      	lsls	r3, r0
1000274e:	0612      	lsls	r2, r2, #24
10002750:	6293      	str	r3, [r2, #40]	; 0x28
10002752:	6193      	str	r3, [r2, #24]
10002754:	4a09      	ldr	r2, [pc, #36]	; (1000277c <gpio_init+0x34>)
10002756:	0083      	lsls	r3, r0, #2
10002758:	4694      	mov	ip, r2
1000275a:	2240      	movs	r2, #64	; 0x40
1000275c:	4463      	add	r3, ip
1000275e:	6819      	ldr	r1, [r3, #0]
10002760:	00c0      	lsls	r0, r0, #3
10002762:	404a      	eors	r2, r1
10002764:	21c0      	movs	r1, #192	; 0xc0
10002766:	4011      	ands	r1, r2
10002768:	2280      	movs	r2, #128	; 0x80
1000276a:	0152      	lsls	r2, r2, #5
1000276c:	4313      	orrs	r3, r2
1000276e:	6019      	str	r1, [r3, #0]
10002770:	4b03      	ldr	r3, [pc, #12]	; (10002780 <gpio_init+0x38>)
10002772:	469c      	mov	ip, r3
10002774:	2305      	movs	r3, #5
10002776:	4460      	add	r0, ip
10002778:	6043      	str	r3, [r0, #4]
1000277a:	4770      	bx	lr
1000277c:	4001c004 	.word	0x4001c004
10002780:	40014000 	.word	0x40014000

10002784 <hw_claim_lock>:
10002784:	f3ef 8010 	mrs	r0, PRIMASK
10002788:	b672      	cpsid	i
1000278a:	4a03      	ldr	r2, [pc, #12]	; (10002798 <hw_claim_lock+0x14>)
1000278c:	6813      	ldr	r3, [r2, #0]
1000278e:	2b00      	cmp	r3, #0
10002790:	d0fc      	beq.n	1000278c <hw_claim_lock+0x8>
10002792:	f3bf 8f5f 	dmb	sy
10002796:	4770      	bx	lr
10002798:	d000012c 	.word	0xd000012c

1000279c <hw_claim_unlock>:
1000279c:	f3bf 8f5f 	dmb	sy
100027a0:	2200      	movs	r2, #0
100027a2:	4b02      	ldr	r3, [pc, #8]	; (100027ac <hw_claim_unlock+0x10>)
100027a4:	601a      	str	r2, [r3, #0]
100027a6:	f380 8810 	msr	PRIMASK, r0
100027aa:	4770      	bx	lr
100027ac:	d000012c 	.word	0xd000012c

100027b0 <hw_claim_or_assert>:
100027b0:	b570      	push	{r4, r5, r6, lr}
100027b2:	f3ef 8c10 	mrs	ip, PRIMASK
100027b6:	b672      	cpsid	i
100027b8:	4d0d      	ldr	r5, [pc, #52]	; (100027f0 <hw_claim_or_assert+0x40>)
100027ba:	682b      	ldr	r3, [r5, #0]
100027bc:	2b00      	cmp	r3, #0
100027be:	d0fc      	beq.n	100027ba <hw_claim_or_assert+0xa>
100027c0:	f3bf 8f5f 	dmb	sy
100027c4:	2407      	movs	r4, #7
100027c6:	08cb      	lsrs	r3, r1, #3
100027c8:	18c6      	adds	r6, r0, r3
100027ca:	5cc0      	ldrb	r0, [r0, r3]
100027cc:	2301      	movs	r3, #1
100027ce:	400c      	ands	r4, r1
100027d0:	40a3      	lsls	r3, r4
100027d2:	001c      	movs	r4, r3
100027d4:	4004      	ands	r4, r0
100027d6:	4203      	tst	r3, r0
100027d8:	d107      	bne.n	100027ea <hw_claim_or_assert+0x3a>
100027da:	4303      	orrs	r3, r0
100027dc:	7033      	strb	r3, [r6, #0]
100027de:	f3bf 8f5f 	dmb	sy
100027e2:	602c      	str	r4, [r5, #0]
100027e4:	f38c 8810 	msr	PRIMASK, ip
100027e8:	bd70      	pop	{r4, r5, r6, pc}
100027ea:	0010      	movs	r0, r2
100027ec:	f001 f8a2 	bl	10003934 <panic>
100027f0:	d000012c 	.word	0xd000012c

100027f4 <hw_claim_unused_from_range>:
100027f4:	b5f8      	push	{r3, r4, r5, r6, r7, lr}
100027f6:	4647      	mov	r7, r8
100027f8:	46ce      	mov	lr, r9
100027fa:	4688      	mov	r8, r1
100027fc:	b580      	push	{r7, lr}
100027fe:	f3ef 8c10 	mrs	ip, PRIMASK
10002802:	b672      	cpsid	i
10002804:	4d21      	ldr	r5, [pc, #132]	; (1000288c <hw_claim_unused_from_range+0x98>)
10002806:	682c      	ldr	r4, [r5, #0]
10002808:	2c00      	cmp	r4, #0
1000280a:	d0fc      	beq.n	10002806 <hw_claim_unused_from_range+0x12>
1000280c:	f3bf 8f5f 	dmb	sy
10002810:	429a      	cmp	r2, r3
10002812:	d82c      	bhi.n	1000286e <hw_claim_unused_from_range+0x7a>
10002814:	08d4      	lsrs	r4, r2, #3
10002816:	2707      	movs	r7, #7
10002818:	5d05      	ldrb	r5, [r0, r4]
1000281a:	1906      	adds	r6, r0, r4
1000281c:	2401      	movs	r4, #1
1000281e:	4017      	ands	r7, r2
10002820:	40bc      	lsls	r4, r7
10002822:	422c      	tst	r4, r5
10002824:	d01f      	beq.n	10002866 <hw_claim_unused_from_range+0x72>
10002826:	2107      	movs	r1, #7
10002828:	2701      	movs	r7, #1
1000282a:	4689      	mov	r9, r1
1000282c:	e009      	b.n	10002842 <hw_claim_unused_from_range+0x4e>
1000282e:	08d4      	lsrs	r4, r2, #3
10002830:	5d05      	ldrb	r5, [r0, r4]
10002832:	1906      	adds	r6, r0, r4
10002834:	464c      	mov	r4, r9
10002836:	0039      	movs	r1, r7
10002838:	4014      	ands	r4, r2
1000283a:	40a1      	lsls	r1, r4
1000283c:	000c      	movs	r4, r1
1000283e:	4229      	tst	r1, r5
10002840:	d011      	beq.n	10002866 <hw_claim_unused_from_range+0x72>
10002842:	3201      	adds	r2, #1
10002844:	4293      	cmp	r3, r2
10002846:	d2f2      	bcs.n	1000282e <hw_claim_unused_from_range+0x3a>
10002848:	2001      	movs	r0, #1
1000284a:	4240      	negs	r0, r0
1000284c:	f3bf 8f5f 	dmb	sy
10002850:	2200      	movs	r2, #0
10002852:	4b0e      	ldr	r3, [pc, #56]	; (1000288c <hw_claim_unused_from_range+0x98>)
10002854:	601a      	str	r2, [r3, #0]
10002856:	f38c 8810 	msr	PRIMASK, ip
1000285a:	2800      	cmp	r0, #0
1000285c:	db0f      	blt.n	1000287e <hw_claim_unused_from_range+0x8a>
1000285e:	bcc0      	pop	{r6, r7}
10002860:	46b9      	mov	r9, r7
10002862:	46b0      	mov	r8, r6
10002864:	bdf8      	pop	{r3, r4, r5, r6, r7, pc}
10002866:	432c      	orrs	r4, r5
10002868:	0010      	movs	r0, r2
1000286a:	7034      	strb	r4, [r6, #0]
1000286c:	e7ee      	b.n	1000284c <hw_claim_unused_from_range+0x58>
1000286e:	f3bf 8f5f 	dmb	sy
10002872:	2300      	movs	r3, #0
10002874:	602b      	str	r3, [r5, #0]
10002876:	f38c 8810 	msr	PRIMASK, ip
1000287a:	2001      	movs	r0, #1
1000287c:	4240      	negs	r0, r0
1000287e:	4643      	mov	r3, r8
10002880:	2b00      	cmp	r3, #0
10002882:	d0ec      	beq.n	1000285e <hw_claim_unused_from_range+0x6a>
10002884:	9808      	ldr	r0, [sp, #32]
10002886:	f001 f855 	bl	10003934 <panic>
1000288a:	46c0      	nop			; (mov r8, r8)
1000288c:	d000012c 	.word	0xd000012c

10002890 <running_on_fpga>:
10002890:	4b02      	ldr	r3, [pc, #8]	; (1000289c <running_on_fpga+0xc>)
10002892:	6818      	ldr	r0, [r3, #0]
10002894:	0780      	lsls	r0, r0, #30
10002896:	0fc0      	lsrs	r0, r0, #31
10002898:	4770      	bx	lr
1000289a:	46c0      	nop			; (mov r8, r8)
1000289c:	4006c000 	.word	0x4006c000

100028a0 <spin_locks_reset>:
100028a0:	2100      	movs	r1, #0
100028a2:	4b04      	ldr	r3, [pc, #16]	; (100028b4 <spin_locks_reset+0x14>)
100028a4:	4a04      	ldr	r2, [pc, #16]	; (100028b8 <spin_locks_reset+0x18>)
100028a6:	f3bf 8f5f 	dmb	sy
100028aa:	c302      	stmia	r3!, {r1}
100028ac:	4293      	cmp	r3, r2
100028ae:	d1fa      	bne.n	100028a6 <spin_locks_reset+0x6>
100028b0:	4770      	bx	lr
100028b2:	46c0      	nop			; (mov r8, r8)
100028b4:	d0000100 	.word	0xd0000100
100028b8:	d0000180 	.word	0xd0000180

100028bc <next_striped_spin_lock_num>:
100028bc:	4a04      	ldr	r2, [pc, #16]	; (100028d0 <next_striped_spin_lock_num+0x14>)
100028be:	7810      	ldrb	r0, [r2, #0]
100028c0:	1c43      	adds	r3, r0, #1
100028c2:	b2db      	uxtb	r3, r3
100028c4:	2b17      	cmp	r3, #23
100028c6:	d900      	bls.n	100028ca <next_striped_spin_lock_num+0xe>
100028c8:	2310      	movs	r3, #16
100028ca:	7013      	strb	r3, [r2, #0]
100028cc:	4770      	bx	lr
100028ce:	46c0      	nop			; (mov r8, r8)
100028d0:	20000925 	.word	0x20000925

100028d4 <uart_init>:
100028d4:	b5f8      	push	{r3, r4, r5, r6, r7, lr}
100028d6:	0004      	movs	r4, r0
100028d8:	2006      	movs	r0, #6
100028da:	000d      	movs	r5, r1
100028dc:	f001 f9a6 	bl	10003c2c <clock_get_hz>
100028e0:	2800      	cmp	r0, #0
100028e2:	d044      	beq.n	1000296e <uart_init+0x9a>
100028e4:	4b2a      	ldr	r3, [pc, #168]	; (10002990 <uart_init+0xbc>)
100028e6:	492b      	ldr	r1, [pc, #172]	; (10002994 <uart_init+0xc0>)
100028e8:	18e2      	adds	r2, r4, r3
100028ea:	4253      	negs	r3, r2
100028ec:	415a      	adcs	r2, r3
100028ee:	2380      	movs	r3, #128	; 0x80
100028f0:	03db      	lsls	r3, r3, #15
100028f2:	469c      	mov	ip, r3
100028f4:	0592      	lsls	r2, r2, #22
100028f6:	4b28      	ldr	r3, [pc, #160]	; (10002998 <uart_init+0xc4>)
100028f8:	4462      	add	r2, ip
100028fa:	601a      	str	r2, [r3, #0]
100028fc:	4b27      	ldr	r3, [pc, #156]	; (1000299c <uart_init+0xc8>)
100028fe:	601a      	str	r2, [r3, #0]
10002900:	0010      	movs	r0, r2
10002902:	688b      	ldr	r3, [r1, #8]
10002904:	4398      	bics	r0, r3
10002906:	d1fb      	bne.n	10002900 <uart_init+0x2c>
10002908:	4b21      	ldr	r3, [pc, #132]	; (10002990 <uart_init+0xbc>)
1000290a:	2180      	movs	r1, #128	; 0x80
1000290c:	18e3      	adds	r3, r4, r3
1000290e:	425a      	negs	r2, r3
10002910:	4153      	adcs	r3, r2
10002912:	4a23      	ldr	r2, [pc, #140]	; (100029a0 <uart_init+0xcc>)
10002914:	005b      	lsls	r3, r3, #1
10002916:	0049      	lsls	r1, r1, #1
10002918:	5299      	strh	r1, [r3, r2]
1000291a:	2006      	movs	r0, #6
1000291c:	f001 f986 	bl	10003c2c <clock_get_hz>
10002920:	0029      	movs	r1, r5
10002922:	00c0      	lsls	r0, r0, #3
10002924:	f001 fc26 	bl	10004174 <__wrap___aeabi_uidiv>
10002928:	09c3      	lsrs	r3, r0, #7
1000292a:	d121      	bne.n	10002970 <uart_init+0x9c>
1000292c:	2740      	movs	r7, #64	; 0x40
1000292e:	2101      	movs	r1, #1
10002930:	0026      	movs	r6, r4
10002932:	2580      	movs	r5, #128	; 0x80
10002934:	6261      	str	r1, [r4, #36]	; 0x24
10002936:	62a3      	str	r3, [r4, #40]	; 0x28
10002938:	2300      	movs	r3, #0
1000293a:	362c      	adds	r6, #44	; 0x2c
1000293c:	01ad      	lsls	r5, r5, #6
1000293e:	4335      	orrs	r5, r6
10002940:	602b      	str	r3, [r5, #0]
10002942:	2006      	movs	r0, #6
10002944:	f001 f972 	bl	10003c2c <clock_get_hz>
10002948:	0039      	movs	r1, r7
1000294a:	0080      	lsls	r0, r0, #2
1000294c:	f001 fc12 	bl	10004174 <__wrap___aeabi_uidiv>
10002950:	2360      	movs	r3, #96	; 0x60
10002952:	6ae2      	ldr	r2, [r4, #44]	; 0x2c
10002954:	4053      	eors	r3, r2
10002956:	226e      	movs	r2, #110	; 0x6e
10002958:	401a      	ands	r2, r3
1000295a:	2380      	movs	r3, #128	; 0x80
1000295c:	015b      	lsls	r3, r3, #5
1000295e:	4333      	orrs	r3, r6
10002960:	601a      	str	r2, [r3, #0]
10002962:	4b10      	ldr	r3, [pc, #64]	; (100029a4 <uart_init+0xd0>)
10002964:	6323      	str	r3, [r4, #48]	; 0x30
10002966:	2310      	movs	r3, #16
10002968:	602b      	str	r3, [r5, #0]
1000296a:	3b0d      	subs	r3, #13
1000296c:	64a3      	str	r3, [r4, #72]	; 0x48
1000296e:	bdf8      	pop	{r3, r4, r5, r6, r7, pc}
10002970:	4a0d      	ldr	r2, [pc, #52]	; (100029a8 <uart_init+0xd4>)
10002972:	4293      	cmp	r3, r2
10002974:	d903      	bls.n	1000297e <uart_init+0xaa>
10002976:	2300      	movs	r3, #0
10002978:	4f0c      	ldr	r7, [pc, #48]	; (100029ac <uart_init+0xd8>)
1000297a:	490d      	ldr	r1, [pc, #52]	; (100029b0 <uart_init+0xdc>)
1000297c:	e7d8      	b.n	10002930 <uart_init+0x5c>
1000297e:	227f      	movs	r2, #127	; 0x7f
10002980:	4010      	ands	r0, r2
10002982:	3001      	adds	r0, #1
10002984:	0840      	lsrs	r0, r0, #1
10002986:	019f      	lsls	r7, r3, #6
10002988:	0019      	movs	r1, r3
1000298a:	183f      	adds	r7, r7, r0
1000298c:	0003      	movs	r3, r0
1000298e:	e7cf      	b.n	10002930 <uart_init+0x5c>
10002990:	bffc8000 	.word	0xbffc8000
10002994:	4000c000 	.word	0x4000c000
10002998:	4000e000 	.word	0x4000e000
1000299c:	4000f000 	.word	0x4000f000
100029a0:	2002abb0 	.word	0x2002abb0
100029a4:	00000301 	.word	0x00000301
100029a8:	0000fffe 	.word	0x0000fffe
100029ac:	003fffc0 	.word	0x003fffc0
100029b0:	0000ffff 	.word	0x0000ffff

100029b4 <timer_pool_entry_comparator>:
100029b4:	6883      	ldr	r3, [r0, #8]
100029b6:	480b      	ldr	r0, [pc, #44]	; (100029e4 <timer_pool_entry_comparator+0x30>)
100029b8:	b510      	push	{r4, lr}
100029ba:	4684      	mov	ip, r0
100029bc:	4461      	add	r1, ip
100029be:	4462      	add	r2, ip
100029c0:	0109      	lsls	r1, r1, #4
100029c2:	0112      	lsls	r2, r2, #4
100029c4:	189a      	adds	r2, r3, r2
100029c6:	1859      	adds	r1, r3, r1
100029c8:	6854      	ldr	r4, [r2, #4]
100029ca:	684b      	ldr	r3, [r1, #4]
100029cc:	2001      	movs	r0, #1
100029ce:	429c      	cmp	r4, r3
100029d0:	d801      	bhi.n	100029d6 <timer_pool_entry_comparator+0x22>
100029d2:	d002      	beq.n	100029da <timer_pool_entry_comparator+0x26>
100029d4:	2000      	movs	r0, #0
100029d6:	b2c0      	uxtb	r0, r0
100029d8:	bd10      	pop	{r4, pc}
100029da:	6812      	ldr	r2, [r2, #0]
100029dc:	680b      	ldr	r3, [r1, #0]
100029de:	429a      	cmp	r2, r3
100029e0:	d8f9      	bhi.n	100029d6 <timer_pool_entry_comparator+0x22>
100029e2:	e7f7      	b.n	100029d4 <timer_pool_entry_comparator+0x20>
100029e4:	0fffffff 	.word	0x0fffffff

100029e8 <repeating_timer_callback>:
100029e8:	b510      	push	{r4, lr}
100029ea:	0008      	movs	r0, r1
100029ec:	690b      	ldr	r3, [r1, #16]
100029ee:	000c      	movs	r4, r1
100029f0:	4798      	blx	r3
100029f2:	2800      	cmp	r0, #0
100029f4:	d002      	beq.n	100029fc <repeating_timer_callback+0x14>
100029f6:	6820      	ldr	r0, [r4, #0]
100029f8:	6861      	ldr	r1, [r4, #4]
100029fa:	bd10      	pop	{r4, pc}
100029fc:	60e0      	str	r0, [r4, #12]
100029fe:	2100      	movs	r1, #0
10002a00:	2000      	movs	r0, #0
10002a02:	e7fa      	b.n	100029fa <repeating_timer_callback+0x12>

10002a04 <sleep_until_callback>:
10002a04:	4b0a      	ldr	r3, [pc, #40]	; (10002a30 <sleep_until_callback+0x2c>)
10002a06:	6819      	ldr	r1, [r3, #0]
10002a08:	f3ef 8010 	mrs	r0, PRIMASK
10002a0c:	b672      	cpsid	i
10002a0e:	680a      	ldr	r2, [r1, #0]
10002a10:	2a00      	cmp	r2, #0
10002a12:	d0fc      	beq.n	10002a0e <sleep_until_callback+0xa>
10002a14:	f3bf 8f5f 	dmb	sy
10002a18:	681b      	ldr	r3, [r3, #0]
10002a1a:	f3bf 8f5f 	dmb	sy
10002a1e:	2200      	movs	r2, #0
10002a20:	601a      	str	r2, [r3, #0]
10002a22:	f380 8810 	msr	PRIMASK, r0
10002a26:	bf40      	sev
10002a28:	2000      	movs	r0, #0
10002a2a:	2100      	movs	r1, #0
10002a2c:	4770      	bx	lr
10002a2e:	46c0      	nop			; (mov r8, r8)
10002a30:	2002ab9c 	.word	0x2002ab9c

10002a34 <add_alarm_under_lock.isra.0>:
10002a34:	b5f8      	push	{r3, r4, r5, r6, r7, lr}
10002a36:	4657      	mov	r7, sl
10002a38:	464e      	mov	r6, r9
10002a3a:	4645      	mov	r5, r8
10002a3c:	46de      	mov	lr, fp
10002a3e:	b5e0      	push	{r5, r6, r7, lr}
10002a40:	4699      	mov	r9, r3
10002a42:	ab0c      	add	r3, sp, #48	; 0x30
10002a44:	781c      	ldrb	r4, [r3, #0]
10002a46:	ab0d      	add	r3, sp, #52	; 0x34
10002a48:	781b      	ldrb	r3, [r3, #0]
10002a4a:	0006      	movs	r6, r0
10002a4c:	4690      	mov	r8, r2
10002a4e:	469a      	mov	sl, r3
10002a50:	6807      	ldr	r7, [r0, #0]
10002a52:	2c00      	cmp	r4, #0
10002a54:	d111      	bne.n	10002a7a <add_alarm_under_lock.isra.0+0x46>
10002a56:	7bbc      	ldrb	r4, [r7, #14]
10002a58:	2c00      	cmp	r4, #0
10002a5a:	d042      	beq.n	10002ae2 <add_alarm_under_lock.isra.0+0xae>
10002a5c:	0065      	lsls	r5, r4, #1
10002a5e:	683b      	ldr	r3, [r7, #0]
10002a60:	192d      	adds	r5, r5, r4
10002a62:	3d03      	subs	r5, #3
10002a64:	1959      	adds	r1, r3, r5
10002a66:	784b      	ldrb	r3, [r1, #1]
10002a68:	73bb      	strb	r3, [r7, #14]
10002a6a:	2b00      	cmp	r3, #0
10002a6c:	d100      	bne.n	10002a70 <add_alarm_under_lock.isra.0+0x3c>
10002a6e:	73fb      	strb	r3, [r7, #15]
10002a70:	2300      	movs	r3, #0
10002a72:	708b      	strb	r3, [r1, #2]
10002a74:	704b      	strb	r3, [r1, #1]
10002a76:	700b      	strb	r3, [r1, #0]
10002a78:	e004      	b.n	10002a84 <add_alarm_under_lock.isra.0+0x50>
10002a7a:	0065      	lsls	r5, r4, #1
10002a7c:	683b      	ldr	r3, [r7, #0]
10002a7e:	192d      	adds	r5, r5, r4
10002a80:	3d03      	subs	r5, #3
10002a82:	1959      	adds	r1, r3, r5
10002a84:	68b2      	ldr	r2, [r6, #8]
10002a86:	4b2a      	ldr	r3, [pc, #168]	; (10002b30 <add_alarm_under_lock.isra.0+0xfc>)
10002a88:	4694      	mov	ip, r2
10002a8a:	4642      	mov	r2, r8
10002a8c:	18e3      	adds	r3, r4, r3
10002a8e:	011b      	lsls	r3, r3, #4
10002a90:	4463      	add	r3, ip
10002a92:	601a      	str	r2, [r3, #0]
10002a94:	464a      	mov	r2, r9
10002a96:	605a      	str	r2, [r3, #4]
10002a98:	9a0a      	ldr	r2, [sp, #40]	; 0x28
10002a9a:	609a      	str	r2, [r3, #8]
10002a9c:	9a0b      	ldr	r2, [sp, #44]	; 0x2c
10002a9e:	60da      	str	r2, [r3, #12]
10002aa0:	2300      	movs	r3, #0
10002aa2:	708b      	strb	r3, [r1, #2]
10002aa4:	704b      	strb	r3, [r1, #1]
10002aa6:	700b      	strb	r3, [r1, #0]
10002aa8:	7b7b      	ldrb	r3, [r7, #13]
10002aaa:	469b      	mov	fp, r3
10002aac:	2b00      	cmp	r3, #0
10002aae:	d02b      	beq.n	10002b08 <add_alarm_under_lock.isra.0+0xd4>
10002ab0:	0022      	movs	r2, r4
10002ab2:	4659      	mov	r1, fp
10002ab4:	68b8      	ldr	r0, [r7, #8]
10002ab6:	687b      	ldr	r3, [r7, #4]
10002ab8:	4798      	blx	r3
10002aba:	683a      	ldr	r2, [r7, #0]
10002abc:	2800      	cmp	r0, #0
10002abe:	d016      	beq.n	10002aee <add_alarm_under_lock.isra.0+0xba>
10002ac0:	465b      	mov	r3, fp
10002ac2:	4658      	mov	r0, fp
10002ac4:	005b      	lsls	r3, r3, #1
10002ac6:	445b      	add	r3, fp
10002ac8:	1955      	adds	r5, r2, r5
10002aca:	3b03      	subs	r3, #3
10002acc:	70a8      	strb	r0, [r5, #2]
10002ace:	18d1      	adds	r1, r2, r3
10002ad0:	5cd3      	ldrb	r3, [r2, r3]
10002ad2:	2b00      	cmp	r3, #0
10002ad4:	d000      	beq.n	10002ad8 <add_alarm_under_lock.isra.0+0xa4>
10002ad6:	706b      	strb	r3, [r5, #1]
10002ad8:	465b      	mov	r3, fp
10002ada:	700c      	strb	r4, [r1, #0]
10002adc:	737b      	strb	r3, [r7, #13]
10002ade:	45a3      	cmp	fp, r4
10002ae0:	d013      	beq.n	10002b0a <add_alarm_under_lock.isra.0+0xd6>
10002ae2:	bcf0      	pop	{r4, r5, r6, r7}
10002ae4:	46bb      	mov	fp, r7
10002ae6:	46b2      	mov	sl, r6
10002ae8:	46a9      	mov	r9, r5
10002aea:	46a0      	mov	r8, r4
10002aec:	bdf8      	pop	{r3, r4, r5, r6, r7, pc}
10002aee:	465b      	mov	r3, fp
10002af0:	005b      	lsls	r3, r3, #1
10002af2:	445b      	add	r3, fp
10002af4:	3b03      	subs	r3, #3
10002af6:	18d3      	adds	r3, r2, r3
10002af8:	709c      	strb	r4, [r3, #2]
10002afa:	1951      	adds	r1, r2, r5
10002afc:	5d52      	ldrb	r2, [r2, r5]
10002afe:	2a00      	cmp	r2, #0
10002b00:	d000      	beq.n	10002b04 <add_alarm_under_lock.isra.0+0xd0>
10002b02:	705a      	strb	r2, [r3, #1]
10002b04:	465b      	mov	r3, fp
10002b06:	700b      	strb	r3, [r1, #0]
10002b08:	737c      	strb	r4, [r7, #13]
10002b0a:	4642      	mov	r2, r8
10002b0c:	464b      	mov	r3, r9
10002b0e:	7d30      	ldrb	r0, [r6, #20]
10002b10:	f000 fc0a 	bl	10003328 <hardware_alarm_set_target>
10002b14:	1e05      	subs	r5, r0, #0
10002b16:	d006      	beq.n	10002b26 <add_alarm_under_lock.isra.0+0xf2>
10002b18:	4653      	mov	r3, sl
10002b1a:	2b00      	cmp	r3, #0
10002b1c:	d103      	bne.n	10002b26 <add_alarm_under_lock.isra.0+0xf2>
10002b1e:	0021      	movs	r1, r4
10002b20:	6830      	ldr	r0, [r6, #0]
10002b22:	f000 fe47 	bl	100037b4 <ph_remove_and_free_node>
10002b26:	9b0e      	ldr	r3, [sp, #56]	; 0x38
10002b28:	2b00      	cmp	r3, #0
10002b2a:	d0da      	beq.n	10002ae2 <add_alarm_under_lock.isra.0+0xae>
10002b2c:	701d      	strb	r5, [r3, #0]
10002b2e:	e7d8      	b.n	10002ae2 <add_alarm_under_lock.isra.0+0xae>
10002b30:	0fffffff 	.word	0x0fffffff

10002b34 <alarm_pool_alarm_callback>:
10002b34:	b5f0      	push	{r4, r5, r6, r7, lr}
10002b36:	46de      	mov	lr, fp
10002b38:	464e      	mov	r6, r9
10002b3a:	4657      	mov	r7, sl
10002b3c:	4645      	mov	r5, r8
10002b3e:	2300      	movs	r3, #0
10002b40:	b5e0      	push	{r5, r6, r7, lr}
10002b42:	b08d      	sub	sp, #52	; 0x34
10002b44:	930a      	str	r3, [sp, #40]	; 0x28
10002b46:	4b6b      	ldr	r3, [pc, #428]	; (10002cf4 <alarm_pool_alarm_callback+0x1c0>)
10002b48:	0082      	lsls	r2, r0, #2
10002b4a:	58d3      	ldr	r3, [r2, r3]
10002b4c:	900b      	str	r0, [sp, #44]	; 0x2c
10002b4e:	4699      	mov	r9, r3
10002b50:	2300      	movs	r3, #0
10002b52:	469b      	mov	fp, r3
10002b54:	464b      	mov	r3, r9
10002b56:	9307      	str	r3, [sp, #28]
10002b58:	f000 fb86 	bl	10003268 <time_us_64>
10002b5c:	9c07      	ldr	r4, [sp, #28]
10002b5e:	0006      	movs	r6, r0
10002b60:	000f      	movs	r7, r1
10002b62:	6862      	ldr	r2, [r4, #4]
10002b64:	f3ef 8510 	mrs	r5, PRIMASK
10002b68:	b672      	cpsid	i
10002b6a:	6813      	ldr	r3, [r2, #0]
10002b6c:	2b00      	cmp	r3, #0
10002b6e:	d0fc      	beq.n	10002b6a <alarm_pool_alarm_callback+0x36>
10002b70:	0022      	movs	r2, r4
10002b72:	9407      	str	r4, [sp, #28]
10002b74:	f3bf 8f5f 	dmb	sy
10002b78:	6824      	ldr	r4, [r4, #0]
10002b7a:	7b63      	ldrb	r3, [r4, #13]
10002b7c:	4699      	mov	r9, r3
10002b7e:	2b00      	cmp	r3, #0
10002b80:	d067      	beq.n	10002c52 <alarm_pool_alarm_callback+0x11e>
10002b82:	6892      	ldr	r2, [r2, #8]
10002b84:	4b5c      	ldr	r3, [pc, #368]	; (10002cf8 <alarm_pool_alarm_callback+0x1c4>)
10002b86:	4690      	mov	r8, r2
10002b88:	444b      	add	r3, r9
10002b8a:	011b      	lsls	r3, r3, #4
10002b8c:	4498      	add	r8, r3
10002b8e:	4643      	mov	r3, r8
10002b90:	681a      	ldr	r2, [r3, #0]
10002b92:	685b      	ldr	r3, [r3, #4]
10002b94:	0010      	movs	r0, r2
10002b96:	0019      	movs	r1, r3
10002b98:	1b80      	subs	r0, r0, r6
10002b9a:	41b9      	sbcs	r1, r7
10002b9c:	2900      	cmp	r1, #0
10002b9e:	dd5f      	ble.n	10002c60 <alarm_pool_alarm_callback+0x12c>
10002ba0:	980b      	ldr	r0, [sp, #44]	; 0x2c
10002ba2:	f000 fbc1 	bl	10003328 <hardware_alarm_set_target>
10002ba6:	2300      	movs	r3, #0
10002ba8:	2600      	movs	r6, #0
10002baa:	4698      	mov	r8, r3
10002bac:	2700      	movs	r7, #0
10002bae:	469a      	mov	sl, r3
10002bb0:	9c07      	ldr	r4, [sp, #28]
10002bb2:	6863      	ldr	r3, [r4, #4]
10002bb4:	f3bf 8f5f 	dmb	sy
10002bb8:	465a      	mov	r2, fp
10002bba:	601a      	str	r2, [r3, #0]
10002bbc:	f385 8810 	msr	PRIMASK, r5
10002bc0:	4653      	mov	r3, sl
10002bc2:	2b00      	cmp	r3, #0
10002bc4:	d108      	bne.n	10002bd8 <alarm_pool_alarm_callback+0xa4>
10002bc6:	2800      	cmp	r0, #0
10002bc8:	d1c6      	bne.n	10002b58 <alarm_pool_alarm_callback+0x24>
10002bca:	b00d      	add	sp, #52	; 0x34
10002bcc:	bcf0      	pop	{r4, r5, r6, r7}
10002bce:	46bb      	mov	fp, r7
10002bd0:	46b2      	mov	sl, r6
10002bd2:	46a9      	mov	r9, r5
10002bd4:	46a0      	mov	r8, r4
10002bd6:	bdf0      	pop	{r4, r5, r6, r7, pc}
10002bd8:	9b0a      	ldr	r3, [sp, #40]	; 0x28
10002bda:	4641      	mov	r1, r8
10002bdc:	0218      	lsls	r0, r3, #8
10002bde:	464b      	mov	r3, r9
10002be0:	4318      	orrs	r0, r3
10002be2:	47d0      	blx	sl
10002be4:	9008      	str	r0, [sp, #32]
10002be6:	9109      	str	r1, [sp, #36]	; 0x24
10002be8:	6862      	ldr	r2, [r4, #4]
10002bea:	f3ef 8510 	mrs	r5, PRIMASK
10002bee:	b672      	cpsid	i
10002bf0:	6813      	ldr	r3, [r2, #0]
10002bf2:	2b00      	cmp	r3, #0
10002bf4:	d0fc      	beq.n	10002bf0 <alarm_pool_alarm_callback+0xbc>
10002bf6:	9407      	str	r4, [sp, #28]
10002bf8:	f3bf 8f5f 	dmb	sy
10002bfc:	9908      	ldr	r1, [sp, #32]
10002bfe:	9a09      	ldr	r2, [sp, #36]	; 0x24
10002c00:	2a00      	cmp	r2, #0
10002c02:	db48      	blt.n	10002c96 <alarm_pool_alarm_callback+0x162>
10002c04:	4311      	orrs	r1, r2
10002c06:	d003      	beq.n	10002c10 <alarm_pool_alarm_callback+0xdc>
10002c08:	9b07      	ldr	r3, [sp, #28]
10002c0a:	691b      	ldr	r3, [r3, #16]
10002c0c:	2b00      	cmp	r3, #0
10002c0e:	d15d      	bne.n	10002ccc <alarm_pool_alarm_callback+0x198>
10002c10:	9b07      	ldr	r3, [sp, #28]
10002c12:	681b      	ldr	r3, [r3, #0]
10002c14:	7bd9      	ldrb	r1, [r3, #15]
10002c16:	2900      	cmp	r1, #0
10002c18:	d007      	beq.n	10002c2a <alarm_pool_alarm_callback+0xf6>
10002c1a:	004a      	lsls	r2, r1, #1
10002c1c:	1852      	adds	r2, r2, r1
10002c1e:	6819      	ldr	r1, [r3, #0]
10002c20:	468c      	mov	ip, r1
10002c22:	4649      	mov	r1, r9
10002c24:	4462      	add	r2, ip
10002c26:	3a03      	subs	r2, #3
10002c28:	7051      	strb	r1, [r2, #1]
10002c2a:	464a      	mov	r2, r9
10002c2c:	73da      	strb	r2, [r3, #15]
10002c2e:	464b      	mov	r3, r9
10002c30:	9a07      	ldr	r2, [sp, #28]
10002c32:	3b01      	subs	r3, #1
10002c34:	68d1      	ldr	r1, [r2, #12]
10002c36:	5cca      	ldrb	r2, [r1, r3]
10002c38:	3201      	adds	r2, #1
10002c3a:	54ca      	strb	r2, [r1, r3]
10002c3c:	465b      	mov	r3, fp
10002c3e:	9a07      	ldr	r2, [sp, #28]
10002c40:	6113      	str	r3, [r2, #16]
10002c42:	6853      	ldr	r3, [r2, #4]
10002c44:	f3bf 8f5f 	dmb	sy
10002c48:	465a      	mov	r2, fp
10002c4a:	601a      	str	r2, [r3, #0]
10002c4c:	f385 8810 	msr	PRIMASK, r5
10002c50:	e782      	b.n	10002b58 <alarm_pool_alarm_callback+0x24>
10002c52:	2300      	movs	r3, #0
10002c54:	2600      	movs	r6, #0
10002c56:	4698      	mov	r8, r3
10002c58:	2700      	movs	r7, #0
10002c5a:	469a      	mov	sl, r3
10002c5c:	2000      	movs	r0, #0
10002c5e:	e7a7      	b.n	10002bb0 <alarm_pool_alarm_callback+0x7c>
10002c60:	2900      	cmp	r1, #0
10002c62:	d101      	bne.n	10002c68 <alarm_pool_alarm_callback+0x134>
10002c64:	2800      	cmp	r0, #0
10002c66:	d19b      	bne.n	10002ba0 <alarm_pool_alarm_callback+0x6c>
10002c68:	2100      	movs	r1, #0
10002c6a:	0020      	movs	r0, r4
10002c6c:	f000 fd24 	bl	100036b8 <ph_remove_head>
10002c70:	4643      	mov	r3, r8
10002c72:	681e      	ldr	r6, [r3, #0]
10002c74:	685f      	ldr	r7, [r3, #4]
10002c76:	689b      	ldr	r3, [r3, #8]
10002c78:	9a07      	ldr	r2, [sp, #28]
10002c7a:	469a      	mov	sl, r3
10002c7c:	4643      	mov	r3, r8
10002c7e:	68db      	ldr	r3, [r3, #12]
10002c80:	4698      	mov	r8, r3
10002c82:	68d3      	ldr	r3, [r2, #12]
10002c84:	444b      	add	r3, r9
10002c86:	3b01      	subs	r3, #1
10002c88:	781b      	ldrb	r3, [r3, #0]
10002c8a:	930a      	str	r3, [sp, #40]	; 0x28
10002c8c:	021b      	lsls	r3, r3, #8
10002c8e:	4303      	orrs	r3, r0
10002c90:	6113      	str	r3, [r2, #16]
10002c92:	2000      	movs	r0, #0
10002c94:	e78c      	b.n	10002bb0 <alarm_pool_alarm_callback+0x7c>
10002c96:	6923      	ldr	r3, [r4, #16]
10002c98:	2b00      	cmp	r3, #0
10002c9a:	d0b9      	beq.n	10002c10 <alarm_pool_alarm_callback+0xdc>
10002c9c:	0033      	movs	r3, r6
10002c9e:	003c      	movs	r4, r7
10002ca0:	1a5b      	subs	r3, r3, r1
10002ca2:	4194      	sbcs	r4, r2
10002ca4:	001a      	movs	r2, r3
10002ca6:	0023      	movs	r3, r4
10002ca8:	42a7      	cmp	r7, r4
10002caa:	d819      	bhi.n	10002ce0 <alarm_pool_alarm_callback+0x1ac>
10002cac:	429f      	cmp	r7, r3
10002cae:	d01b      	beq.n	10002ce8 <alarm_pool_alarm_callback+0x1b4>
10002cb0:	4659      	mov	r1, fp
10002cb2:	9104      	str	r1, [sp, #16]
10002cb4:	2101      	movs	r1, #1
10002cb6:	9103      	str	r1, [sp, #12]
10002cb8:	4649      	mov	r1, r9
10002cba:	9102      	str	r1, [sp, #8]
10002cbc:	4641      	mov	r1, r8
10002cbe:	9101      	str	r1, [sp, #4]
10002cc0:	4651      	mov	r1, sl
10002cc2:	9807      	ldr	r0, [sp, #28]
10002cc4:	9100      	str	r1, [sp, #0]
10002cc6:	f7ff feb5 	bl	10002a34 <add_alarm_under_lock.isra.0>
10002cca:	e7b7      	b.n	10002c3c <alarm_pool_alarm_callback+0x108>
10002ccc:	f000 facc 	bl	10003268 <time_us_64>
10002cd0:	9a08      	ldr	r2, [sp, #32]
10002cd2:	9b09      	ldr	r3, [sp, #36]	; 0x24
10002cd4:	0006      	movs	r6, r0
10002cd6:	000f      	movs	r7, r1
10002cd8:	1992      	adds	r2, r2, r6
10002cda:	417b      	adcs	r3, r7
10002cdc:	4299      	cmp	r1, r3
10002cde:	d9e5      	bls.n	10002cac <alarm_pool_alarm_callback+0x178>
10002ce0:	2201      	movs	r2, #1
10002ce2:	4252      	negs	r2, r2
10002ce4:	17d3      	asrs	r3, r2, #31
10002ce6:	e7e3      	b.n	10002cb0 <alarm_pool_alarm_callback+0x17c>
10002ce8:	4296      	cmp	r6, r2
10002cea:	d9e1      	bls.n	10002cb0 <alarm_pool_alarm_callback+0x17c>
10002cec:	2201      	movs	r2, #1
10002cee:	4252      	negs	r2, r2
10002cf0:	17d3      	asrs	r3, r2, #31
10002cf2:	e7dd      	b.n	10002cb0 <alarm_pool_alarm_callback+0x17c>
10002cf4:	2002ab88 	.word	0x2002ab88
10002cf8:	0fffffff 	.word	0x0fffffff

10002cfc <alarm_pool_add_alarm_at.constprop.0>:
10002cfc:	b5f8      	push	{r3, r4, r5, r6, r7, lr}
10002cfe:	4657      	mov	r7, sl
10002d00:	464e      	mov	r6, r9
10002d02:	4645      	mov	r5, r8
10002d04:	46de      	mov	lr, fp
10002d06:	b5e0      	push	{r5, r6, r7, lr}
10002d08:	4d40      	ldr	r5, [pc, #256]	; (10002e0c <alarm_pool_add_alarm_at.constprop.0+0x110>)
10002d0a:	4681      	mov	r9, r0
10002d0c:	468a      	mov	sl, r1
10002d0e:	686a      	ldr	r2, [r5, #4]
10002d10:	f3ef 8810 	mrs	r8, PRIMASK
10002d14:	b672      	cpsid	i
10002d16:	6813      	ldr	r3, [r2, #0]
10002d18:	2b00      	cmp	r3, #0
10002d1a:	d0fc      	beq.n	10002d16 <alarm_pool_add_alarm_at.constprop.0+0x1a>
10002d1c:	f3bf 8f5f 	dmb	sy
10002d20:	682e      	ldr	r6, [r5, #0]
10002d22:	7bb4      	ldrb	r4, [r6, #14]
10002d24:	2c00      	cmp	r4, #0
10002d26:	d039      	beq.n	10002d9c <alarm_pool_add_alarm_at.constprop.0+0xa0>
10002d28:	0067      	lsls	r7, r4, #1
10002d2a:	6833      	ldr	r3, [r6, #0]
10002d2c:	193f      	adds	r7, r7, r4
10002d2e:	3f03      	subs	r7, #3
10002d30:	19db      	adds	r3, r3, r7
10002d32:	785a      	ldrb	r2, [r3, #1]
10002d34:	73b2      	strb	r2, [r6, #14]
10002d36:	2a00      	cmp	r2, #0
10002d38:	d100      	bne.n	10002d3c <alarm_pool_add_alarm_at.constprop.0+0x40>
10002d3a:	73f2      	strb	r2, [r6, #15]
10002d3c:	68a9      	ldr	r1, [r5, #8]
10002d3e:	4a34      	ldr	r2, [pc, #208]	; (10002e10 <alarm_pool_add_alarm_at.constprop.0+0x114>)
10002d40:	468c      	mov	ip, r1
10002d42:	4649      	mov	r1, r9
10002d44:	18a2      	adds	r2, r4, r2
10002d46:	0112      	lsls	r2, r2, #4
10002d48:	4462      	add	r2, ip
10002d4a:	6011      	str	r1, [r2, #0]
10002d4c:	4651      	mov	r1, sl
10002d4e:	6051      	str	r1, [r2, #4]
10002d50:	4930      	ldr	r1, [pc, #192]	; (10002e14 <alarm_pool_add_alarm_at.constprop.0+0x118>)
10002d52:	6091      	str	r1, [r2, #8]
10002d54:	2100      	movs	r1, #0
10002d56:	60d1      	str	r1, [r2, #12]
10002d58:	7099      	strb	r1, [r3, #2]
10002d5a:	7059      	strb	r1, [r3, #1]
10002d5c:	7019      	strb	r1, [r3, #0]
10002d5e:	7b73      	ldrb	r3, [r6, #13]
10002d60:	469b      	mov	fp, r3
10002d62:	2b00      	cmp	r3, #0
10002d64:	d035      	beq.n	10002dd2 <alarm_pool_add_alarm_at.constprop.0+0xd6>
10002d66:	0022      	movs	r2, r4
10002d68:	0019      	movs	r1, r3
10002d6a:	68b0      	ldr	r0, [r6, #8]
10002d6c:	6873      	ldr	r3, [r6, #4]
10002d6e:	4798      	blx	r3
10002d70:	6832      	ldr	r2, [r6, #0]
10002d72:	2800      	cmp	r0, #0
10002d74:	d020      	beq.n	10002db8 <alarm_pool_add_alarm_at.constprop.0+0xbc>
10002d76:	465b      	mov	r3, fp
10002d78:	4658      	mov	r0, fp
10002d7a:	005b      	lsls	r3, r3, #1
10002d7c:	445b      	add	r3, fp
10002d7e:	19d7      	adds	r7, r2, r7
10002d80:	3b03      	subs	r3, #3
10002d82:	70b8      	strb	r0, [r7, #2]
10002d84:	18d1      	adds	r1, r2, r3
10002d86:	5cd3      	ldrb	r3, [r2, r3]
10002d88:	2b00      	cmp	r3, #0
10002d8a:	d000      	beq.n	10002d8e <alarm_pool_add_alarm_at.constprop.0+0x92>
10002d8c:	707b      	strb	r3, [r7, #1]
10002d8e:	465b      	mov	r3, fp
10002d90:	700c      	strb	r4, [r1, #0]
10002d92:	7373      	strb	r3, [r6, #13]
10002d94:	455c      	cmp	r4, fp
10002d96:	d01d      	beq.n	10002dd4 <alarm_pool_add_alarm_at.constprop.0+0xd8>
10002d98:	2600      	movs	r6, #0
10002d9a:	e026      	b.n	10002dea <alarm_pool_add_alarm_at.constprop.0+0xee>
10002d9c:	686b      	ldr	r3, [r5, #4]
10002d9e:	f3bf 8f5f 	dmb	sy
10002da2:	601c      	str	r4, [r3, #0]
10002da4:	f388 8810 	msr	PRIMASK, r8
10002da8:	2001      	movs	r0, #1
10002daa:	4240      	negs	r0, r0
10002dac:	bcf0      	pop	{r4, r5, r6, r7}
10002dae:	46bb      	mov	fp, r7
10002db0:	46b2      	mov	sl, r6
10002db2:	46a9      	mov	r9, r5
10002db4:	46a0      	mov	r8, r4
10002db6:	bdf8      	pop	{r3, r4, r5, r6, r7, pc}
10002db8:	465b      	mov	r3, fp
10002dba:	005b      	lsls	r3, r3, #1
10002dbc:	445b      	add	r3, fp
10002dbe:	3b03      	subs	r3, #3
10002dc0:	18d3      	adds	r3, r2, r3
10002dc2:	709c      	strb	r4, [r3, #2]
10002dc4:	19d1      	adds	r1, r2, r7
10002dc6:	5dd2      	ldrb	r2, [r2, r7]
10002dc8:	2a00      	cmp	r2, #0
10002dca:	d000      	beq.n	10002dce <alarm_pool_add_alarm_at.constprop.0+0xd2>
10002dcc:	705a      	strb	r2, [r3, #1]
10002dce:	465b      	mov	r3, fp
10002dd0:	700b      	strb	r3, [r1, #0]
10002dd2:	7374      	strb	r4, [r6, #13]
10002dd4:	464a      	mov	r2, r9
10002dd6:	4653      	mov	r3, sl
10002dd8:	7d28      	ldrb	r0, [r5, #20]
10002dda:	f000 faa5 	bl	10003328 <hardware_alarm_set_target>
10002dde:	1e06      	subs	r6, r0, #0
10002de0:	d0da      	beq.n	10002d98 <alarm_pool_add_alarm_at.constprop.0+0x9c>
10002de2:	0021      	movs	r1, r4
10002de4:	6828      	ldr	r0, [r5, #0]
10002de6:	f000 fce5 	bl	100037b4 <ph_remove_and_free_node>
10002dea:	68eb      	ldr	r3, [r5, #12]
10002dec:	191b      	adds	r3, r3, r4
10002dee:	3b01      	subs	r3, #1
10002df0:	7819      	ldrb	r1, [r3, #0]
10002df2:	686b      	ldr	r3, [r5, #4]
10002df4:	f3bf 8f5f 	dmb	sy
10002df8:	2200      	movs	r2, #0
10002dfa:	601a      	str	r2, [r3, #0]
10002dfc:	f388 8810 	msr	PRIMASK, r8
10002e00:	2000      	movs	r0, #0
10002e02:	2e00      	cmp	r6, #0
10002e04:	d1d2      	bne.n	10002dac <alarm_pool_add_alarm_at.constprop.0+0xb0>
10002e06:	0208      	lsls	r0, r1, #8
10002e08:	4320      	orrs	r0, r4
10002e0a:	e7cf      	b.n	10002dac <alarm_pool_add_alarm_at.constprop.0+0xb0>
10002e0c:	20000928 	.word	0x20000928
10002e10:	0fffffff 	.word	0x0fffffff
10002e14:	10002a05 	.word	0x10002a05

10002e18 <alarm_pool_init_default>:
10002e18:	b510      	push	{r4, lr}
10002e1a:	4c12      	ldr	r4, [pc, #72]	; (10002e64 <alarm_pool_init_default+0x4c>)
10002e1c:	6863      	ldr	r3, [r4, #4]
10002e1e:	2b00      	cmp	r3, #0
10002e20:	d004      	beq.n	10002e2c <alarm_pool_init_default+0x14>
10002e22:	210a      	movs	r1, #10
10002e24:	4810      	ldr	r0, [pc, #64]	; (10002e68 <alarm_pool_init_default+0x50>)
10002e26:	f000 fb0d 	bl	10003444 <lock_init>
10002e2a:	bd10      	pop	{r4, pc}
10002e2c:	0023      	movs	r3, r4
10002e2e:	4a0f      	ldr	r2, [pc, #60]	; (10002e6c <alarm_pool_init_default+0x54>)
10002e30:	2110      	movs	r1, #16
10002e32:	6820      	ldr	r0, [r4, #0]
10002e34:	f000 fb5e 	bl	100034f4 <ph_post_alloc_init>
10002e38:	2003      	movs	r0, #3
10002e3a:	f000 fa09 	bl	10003250 <hardware_alarm_claim>
10002e3e:	2003      	movs	r0, #3
10002e40:	f000 fae2 	bl	10003408 <hardware_alarm_cancel>
10002e44:	2003      	movs	r0, #3
10002e46:	490a      	ldr	r1, [pc, #40]	; (10002e70 <alarm_pool_init_default+0x58>)
10002e48:	f000 fa28 	bl	1000329c <hardware_alarm_set_callback>
10002e4c:	f7ff fd36 	bl	100028bc <next_striped_spin_lock_num>
10002e50:	4b08      	ldr	r3, [pc, #32]	; (10002e74 <alarm_pool_init_default+0x5c>)
10002e52:	469c      	mov	ip, r3
10002e54:	2303      	movs	r3, #3
10002e56:	4460      	add	r0, ip
10002e58:	7523      	strb	r3, [r4, #20]
10002e5a:	4b07      	ldr	r3, [pc, #28]	; (10002e78 <alarm_pool_init_default+0x60>)
10002e5c:	0080      	lsls	r0, r0, #2
10002e5e:	6060      	str	r0, [r4, #4]
10002e60:	60dc      	str	r4, [r3, #12]
10002e62:	e7de      	b.n	10002e22 <alarm_pool_init_default+0xa>
10002e64:	20000928 	.word	0x20000928
10002e68:	2002ab9c 	.word	0x2002ab9c
10002e6c:	100029b5 	.word	0x100029b5
10002e70:	10002b35 	.word	0x10002b35
10002e74:	34000040 	.word	0x34000040
10002e78:	2002ab88 	.word	0x2002ab88

10002e7c <alarm_pool_get_default>:
10002e7c:	4800      	ldr	r0, [pc, #0]	; (10002e80 <alarm_pool_get_default+0x4>)
10002e7e:	4770      	bx	lr
10002e80:	20000928 	.word	0x20000928

10002e84 <alarm_pool_add_repeating_timer_us>:
10002e84:	b5f0      	push	{r4, r5, r6, r7, lr}
10002e86:	464e      	mov	r6, r9
10002e88:	4645      	mov	r5, r8
10002e8a:	46de      	mov	lr, fp
10002e8c:	4657      	mov	r7, sl
10002e8e:	b5e0      	push	{r5, r6, r7, lr}
10002e90:	b085      	sub	sp, #20
10002e92:	9910      	ldr	r1, [sp, #64]	; 0x40
10002e94:	4680      	mov	r8, r0
10002e96:	4689      	mov	r9, r1
10002e98:	0011      	movs	r1, r2
10002e9a:	4319      	orrs	r1, r3
10002e9c:	d100      	bne.n	10002ea0 <alarm_pool_add_repeating_timer_us+0x1c>
10002e9e:	e0ed      	b.n	1000307c <alarm_pool_add_repeating_timer_us+0x1f8>
10002ea0:	17d8      	asrs	r0, r3, #31
10002ea2:	0006      	movs	r6, r0
10002ea4:	4056      	eors	r6, r2
10002ea6:	0034      	movs	r4, r6
10002ea8:	0006      	movs	r6, r0
10002eaa:	405e      	eors	r6, r3
10002eac:	0001      	movs	r1, r0
10002eae:	0035      	movs	r5, r6
10002eb0:	1a24      	subs	r4, r4, r0
10002eb2:	418d      	sbcs	r5, r1
10002eb4:	4649      	mov	r1, r9
10002eb6:	4640      	mov	r0, r8
10002eb8:	600a      	str	r2, [r1, #0]
10002eba:	6088      	str	r0, [r1, #8]
10002ebc:	9a0f      	ldr	r2, [sp, #60]	; 0x3c
10002ebe:	980e      	ldr	r0, [sp, #56]	; 0x38
10002ec0:	604b      	str	r3, [r1, #4]
10002ec2:	614a      	str	r2, [r1, #20]
10002ec4:	6108      	str	r0, [r1, #16]
10002ec6:	f000 f9cf 	bl	10003268 <time_us_64>
10002eca:	0002      	movs	r2, r0
10002ecc:	000b      	movs	r3, r1
10002ece:	18a4      	adds	r4, r4, r2
10002ed0:	415d      	adcs	r5, r3
10002ed2:	0020      	movs	r0, r4
10002ed4:	0029      	movs	r1, r5
10002ed6:	9000      	str	r0, [sp, #0]
10002ed8:	9101      	str	r1, [sp, #4]
10002eda:	42ab      	cmp	r3, r5
10002edc:	d900      	bls.n	10002ee0 <alarm_pool_add_repeating_timer_us+0x5c>
10002ede:	e0db      	b.n	10003098 <alarm_pool_add_repeating_timer_us+0x214>
10002ee0:	d100      	bne.n	10002ee4 <alarm_pool_add_repeating_timer_us+0x60>
10002ee2:	e0d5      	b.n	10003090 <alarm_pool_add_repeating_timer_us+0x20c>
10002ee4:	2300      	movs	r3, #0
10002ee6:	2500      	movs	r5, #0
10002ee8:	469b      	mov	fp, r3
10002eea:	4643      	mov	r3, r8
10002eec:	685a      	ldr	r2, [r3, #4]
10002eee:	f3ef 8a10 	mrs	sl, PRIMASK
10002ef2:	b672      	cpsid	i
10002ef4:	6813      	ldr	r3, [r2, #0]
10002ef6:	2b00      	cmp	r3, #0
10002ef8:	d0fc      	beq.n	10002ef4 <alarm_pool_add_repeating_timer_us+0x70>
10002efa:	f3bf 8f5f 	dmb	sy
10002efe:	4643      	mov	r3, r8
10002f00:	681e      	ldr	r6, [r3, #0]
10002f02:	7bb4      	ldrb	r4, [r6, #14]
10002f04:	2c00      	cmp	r4, #0
10002f06:	d100      	bne.n	10002f0a <alarm_pool_add_repeating_timer_us+0x86>
10002f08:	e08a      	b.n	10003020 <alarm_pool_add_repeating_timer_us+0x19c>
10002f0a:	0063      	lsls	r3, r4, #1
10002f0c:	191b      	adds	r3, r3, r4
10002f0e:	1eda      	subs	r2, r3, #3
10002f10:	4694      	mov	ip, r2
10002f12:	6833      	ldr	r3, [r6, #0]
10002f14:	9203      	str	r2, [sp, #12]
10002f16:	4463      	add	r3, ip
10002f18:	785a      	ldrb	r2, [r3, #1]
10002f1a:	73b2      	strb	r2, [r6, #14]
10002f1c:	2a00      	cmp	r2, #0
10002f1e:	d100      	bne.n	10002f22 <alarm_pool_add_repeating_timer_us+0x9e>
10002f20:	73f2      	strb	r2, [r6, #15]
10002f22:	4641      	mov	r1, r8
10002f24:	6889      	ldr	r1, [r1, #8]
10002f26:	4a61      	ldr	r2, [pc, #388]	; (100030ac <alarm_pool_add_repeating_timer_us+0x228>)
10002f28:	468c      	mov	ip, r1
10002f2a:	9800      	ldr	r0, [sp, #0]
10002f2c:	9901      	ldr	r1, [sp, #4]
10002f2e:	18a2      	adds	r2, r4, r2
10002f30:	0112      	lsls	r2, r2, #4
10002f32:	4462      	add	r2, ip
10002f34:	6010      	str	r0, [r2, #0]
10002f36:	6051      	str	r1, [r2, #4]
10002f38:	495d      	ldr	r1, [pc, #372]	; (100030b0 <alarm_pool_add_repeating_timer_us+0x22c>)
10002f3a:	6091      	str	r1, [r2, #8]
10002f3c:	4649      	mov	r1, r9
10002f3e:	60d1      	str	r1, [r2, #12]
10002f40:	465a      	mov	r2, fp
10002f42:	709a      	strb	r2, [r3, #2]
10002f44:	705a      	strb	r2, [r3, #1]
10002f46:	701a      	strb	r2, [r3, #0]
10002f48:	7b77      	ldrb	r7, [r6, #13]
10002f4a:	2f00      	cmp	r7, #0
10002f4c:	d100      	bne.n	10002f50 <alarm_pool_add_repeating_timer_us+0xcc>
10002f4e:	e085      	b.n	1000305c <alarm_pool_add_repeating_timer_us+0x1d8>
10002f50:	0022      	movs	r2, r4
10002f52:	0039      	movs	r1, r7
10002f54:	68b0      	ldr	r0, [r6, #8]
10002f56:	6873      	ldr	r3, [r6, #4]
10002f58:	4798      	blx	r3
10002f5a:	6832      	ldr	r2, [r6, #0]
10002f5c:	2800      	cmp	r0, #0
10002f5e:	d100      	bne.n	10002f62 <alarm_pool_add_repeating_timer_us+0xde>
10002f60:	e071      	b.n	10003046 <alarm_pool_add_repeating_timer_us+0x1c2>
10002f62:	9903      	ldr	r1, [sp, #12]
10002f64:	007b      	lsls	r3, r7, #1
10002f66:	19db      	adds	r3, r3, r7
10002f68:	1851      	adds	r1, r2, r1
10002f6a:	3b03      	subs	r3, #3
10002f6c:	708f      	strb	r7, [r1, #2]
10002f6e:	18d0      	adds	r0, r2, r3
10002f70:	5cd3      	ldrb	r3, [r2, r3]
10002f72:	2b00      	cmp	r3, #0
10002f74:	d000      	beq.n	10002f78 <alarm_pool_add_repeating_timer_us+0xf4>
10002f76:	e089      	b.n	1000308c <alarm_pool_add_repeating_timer_us+0x208>
10002f78:	7004      	strb	r4, [r0, #0]
10002f7a:	7377      	strb	r7, [r6, #13]
10002f7c:	42bc      	cmp	r4, r7
10002f7e:	d100      	bne.n	10002f82 <alarm_pool_add_repeating_timer_us+0xfe>
10002f80:	e06d      	b.n	1000305e <alarm_pool_add_repeating_timer_us+0x1da>
10002f82:	4643      	mov	r3, r8
10002f84:	4642      	mov	r2, r8
10002f86:	68db      	ldr	r3, [r3, #12]
10002f88:	6852      	ldr	r2, [r2, #4]
10002f8a:	191b      	adds	r3, r3, r4
10002f8c:	3b01      	subs	r3, #1
10002f8e:	781b      	ldrb	r3, [r3, #0]
10002f90:	f3bf 8f5f 	dmb	sy
10002f94:	4659      	mov	r1, fp
10002f96:	6011      	str	r1, [r2, #0]
10002f98:	f38a 8810 	msr	PRIMASK, sl
10002f9c:	2d00      	cmp	r5, #0
10002f9e:	d10c      	bne.n	10002fba <alarm_pool_add_repeating_timer_us+0x136>
10002fa0:	2501      	movs	r5, #1
10002fa2:	021b      	lsls	r3, r3, #8
10002fa4:	431c      	orrs	r4, r3
10002fa6:	464b      	mov	r3, r9
10002fa8:	0028      	movs	r0, r5
10002faa:	60dc      	str	r4, [r3, #12]
10002fac:	b005      	add	sp, #20
10002fae:	bcf0      	pop	{r4, r5, r6, r7}
10002fb0:	46bb      	mov	fp, r7
10002fb2:	46b2      	mov	sl, r6
10002fb4:	46a9      	mov	r9, r5
10002fb6:	46a0      	mov	r8, r4
10002fb8:	bdf0      	pop	{r4, r5, r6, r7, pc}
10002fba:	4648      	mov	r0, r9
10002fbc:	6903      	ldr	r3, [r0, #16]
10002fbe:	4798      	blx	r3
10002fc0:	1e05      	subs	r5, r0, #0
10002fc2:	d101      	bne.n	10002fc8 <alarm_pool_add_repeating_timer_us+0x144>
10002fc4:	2400      	movs	r4, #0
10002fc6:	e7ee      	b.n	10002fa6 <alarm_pool_add_repeating_timer_us+0x122>
10002fc8:	464b      	mov	r3, r9
10002fca:	681e      	ldr	r6, [r3, #0]
10002fcc:	685f      	ldr	r7, [r3, #4]
10002fce:	0033      	movs	r3, r6
10002fd0:	433b      	orrs	r3, r7
10002fd2:	d067      	beq.n	100030a4 <alarm_pool_add_repeating_timer_us+0x220>
10002fd4:	2f00      	cmp	r7, #0
10002fd6:	da0b      	bge.n	10002ff0 <alarm_pool_add_repeating_timer_us+0x16c>
10002fd8:	9800      	ldr	r0, [sp, #0]
10002fda:	9901      	ldr	r1, [sp, #4]
10002fdc:	0002      	movs	r2, r0
10002fde:	000b      	movs	r3, r1
10002fe0:	1b92      	subs	r2, r2, r6
10002fe2:	41bb      	sbcs	r3, r7
10002fe4:	4299      	cmp	r1, r3
10002fe6:	d815      	bhi.n	10003014 <alarm_pool_add_repeating_timer_us+0x190>
10002fe8:	d024      	beq.n	10003034 <alarm_pool_add_repeating_timer_us+0x1b0>
10002fea:	9200      	str	r2, [sp, #0]
10002fec:	9301      	str	r3, [sp, #4]
10002fee:	e77c      	b.n	10002eea <alarm_pool_add_repeating_timer_us+0x66>
10002ff0:	f000 f93a 	bl	10003268 <time_us_64>
10002ff4:	0002      	movs	r2, r0
10002ff6:	000b      	movs	r3, r1
10002ff8:	18b6      	adds	r6, r6, r2
10002ffa:	415f      	adcs	r7, r3
10002ffc:	0030      	movs	r0, r6
10002ffe:	0039      	movs	r1, r7
10003000:	9000      	str	r0, [sp, #0]
10003002:	9101      	str	r1, [sp, #4]
10003004:	42bb      	cmp	r3, r7
10003006:	d805      	bhi.n	10003014 <alarm_pool_add_repeating_timer_us+0x190>
10003008:	d000      	beq.n	1000300c <alarm_pool_add_repeating_timer_us+0x188>
1000300a:	e76e      	b.n	10002eea <alarm_pool_add_repeating_timer_us+0x66>
1000300c:	9900      	ldr	r1, [sp, #0]
1000300e:	428a      	cmp	r2, r1
10003010:	d800      	bhi.n	10003014 <alarm_pool_add_repeating_timer_us+0x190>
10003012:	e76a      	b.n	10002eea <alarm_pool_add_repeating_timer_us+0x66>
10003014:	2301      	movs	r3, #1
10003016:	425b      	negs	r3, r3
10003018:	17dc      	asrs	r4, r3, #31
1000301a:	9300      	str	r3, [sp, #0]
1000301c:	9401      	str	r4, [sp, #4]
1000301e:	e764      	b.n	10002eea <alarm_pool_add_repeating_timer_us+0x66>
10003020:	685b      	ldr	r3, [r3, #4]
10003022:	f3bf 8f5f 	dmb	sy
10003026:	601c      	str	r4, [r3, #0]
10003028:	f38a 8810 	msr	PRIMASK, sl
1000302c:	2401      	movs	r4, #1
1000302e:	2500      	movs	r5, #0
10003030:	4264      	negs	r4, r4
10003032:	e7b8      	b.n	10002fa6 <alarm_pool_add_repeating_timer_us+0x122>
10003034:	9900      	ldr	r1, [sp, #0]
10003036:	4291      	cmp	r1, r2
10003038:	d9d7      	bls.n	10002fea <alarm_pool_add_repeating_timer_us+0x166>
1000303a:	2301      	movs	r3, #1
1000303c:	425b      	negs	r3, r3
1000303e:	17dc      	asrs	r4, r3, #31
10003040:	9300      	str	r3, [sp, #0]
10003042:	9401      	str	r4, [sp, #4]
10003044:	e751      	b.n	10002eea <alarm_pool_add_repeating_timer_us+0x66>
10003046:	007b      	lsls	r3, r7, #1
10003048:	19db      	adds	r3, r3, r7
1000304a:	3b03      	subs	r3, #3
1000304c:	9803      	ldr	r0, [sp, #12]
1000304e:	18d3      	adds	r3, r2, r3
10003050:	709c      	strb	r4, [r3, #2]
10003052:	1811      	adds	r1, r2, r0
10003054:	5c12      	ldrb	r2, [r2, r0]
10003056:	2a00      	cmp	r2, #0
10003058:	d115      	bne.n	10003086 <alarm_pool_add_repeating_timer_us+0x202>
1000305a:	700f      	strb	r7, [r1, #0]
1000305c:	7374      	strb	r4, [r6, #13]
1000305e:	4643      	mov	r3, r8
10003060:	7d18      	ldrb	r0, [r3, #20]
10003062:	9a00      	ldr	r2, [sp, #0]
10003064:	9b01      	ldr	r3, [sp, #4]
10003066:	f000 f95f 	bl	10003328 <hardware_alarm_set_target>
1000306a:	1e05      	subs	r5, r0, #0
1000306c:	d100      	bne.n	10003070 <alarm_pool_add_repeating_timer_us+0x1ec>
1000306e:	e788      	b.n	10002f82 <alarm_pool_add_repeating_timer_us+0xfe>
10003070:	4643      	mov	r3, r8
10003072:	0021      	movs	r1, r4
10003074:	6818      	ldr	r0, [r3, #0]
10003076:	f000 fb9d 	bl	100037b4 <ph_remove_and_free_node>
1000307a:	e782      	b.n	10002f82 <alarm_pool_add_repeating_timer_us+0xfe>
1000307c:	2401      	movs	r4, #1
1000307e:	2500      	movs	r5, #0
10003080:	2201      	movs	r2, #1
10003082:	2300      	movs	r3, #0
10003084:	e716      	b.n	10002eb4 <alarm_pool_add_repeating_timer_us+0x30>
10003086:	705a      	strb	r2, [r3, #1]
10003088:	700f      	strb	r7, [r1, #0]
1000308a:	e7e7      	b.n	1000305c <alarm_pool_add_repeating_timer_us+0x1d8>
1000308c:	704b      	strb	r3, [r1, #1]
1000308e:	e773      	b.n	10002f78 <alarm_pool_add_repeating_timer_us+0xf4>
10003090:	9900      	ldr	r1, [sp, #0]
10003092:	428a      	cmp	r2, r1
10003094:	d800      	bhi.n	10003098 <alarm_pool_add_repeating_timer_us+0x214>
10003096:	e725      	b.n	10002ee4 <alarm_pool_add_repeating_timer_us+0x60>
10003098:	2301      	movs	r3, #1
1000309a:	425b      	negs	r3, r3
1000309c:	17dc      	asrs	r4, r3, #31
1000309e:	9300      	str	r3, [sp, #0]
100030a0:	9401      	str	r4, [sp, #4]
100030a2:	e71f      	b.n	10002ee4 <alarm_pool_add_repeating_timer_us+0x60>
100030a4:	2500      	movs	r5, #0
100030a6:	2400      	movs	r4, #0
100030a8:	e77d      	b.n	10002fa6 <alarm_pool_add_repeating_timer_us+0x122>
100030aa:	46c0      	nop			; (mov r8, r8)
100030ac:	0fffffff 	.word	0x0fffffff
100030b0:	100029e9 	.word	0x100029e9

100030b4 <sleep_until>:
100030b4:	b5f0      	push	{r4, r5, r6, r7, lr}
100030b6:	0004      	movs	r4, r0
100030b8:	000d      	movs	r5, r1
100030ba:	2606      	movs	r6, #6
100030bc:	4276      	negs	r6, r6
100030be:	17f7      	asrs	r7, r6, #31
100030c0:	46c6      	mov	lr, r8
100030c2:	1936      	adds	r6, r6, r4
100030c4:	416f      	adcs	r7, r5
100030c6:	b500      	push	{lr}
100030c8:	428f      	cmp	r7, r1
100030ca:	d813      	bhi.n	100030f4 <sleep_until+0x40>
100030cc:	d010      	beq.n	100030f0 <sleep_until+0x3c>
100030ce:	f000 f8cb 	bl	10003268 <time_us_64>
100030d2:	0032      	movs	r2, r6
100030d4:	003b      	movs	r3, r7
100030d6:	1a12      	subs	r2, r2, r0
100030d8:	418b      	sbcs	r3, r1
100030da:	2b00      	cmp	r3, #0
100030dc:	dc14      	bgt.n	10003108 <sleep_until+0x54>
100030de:	2b00      	cmp	r3, #0
100030e0:	d037      	beq.n	10003152 <sleep_until+0x9e>
100030e2:	0029      	movs	r1, r5
100030e4:	0020      	movs	r0, r4
100030e6:	f000 f8c9 	bl	1000327c <busy_wait_until>
100030ea:	bc80      	pop	{r7}
100030ec:	46b8      	mov	r8, r7
100030ee:	bdf0      	pop	{r4, r5, r6, r7, pc}
100030f0:	4286      	cmp	r6, r0
100030f2:	d9ec      	bls.n	100030ce <sleep_until+0x1a>
100030f4:	2600      	movs	r6, #0
100030f6:	2700      	movs	r7, #0
100030f8:	f000 f8b6 	bl	10003268 <time_us_64>
100030fc:	0032      	movs	r2, r6
100030fe:	003b      	movs	r3, r7
10003100:	1a12      	subs	r2, r2, r0
10003102:	418b      	sbcs	r3, r1
10003104:	2b00      	cmp	r3, #0
10003106:	ddea      	ble.n	100030de <sleep_until+0x2a>
10003108:	0030      	movs	r0, r6
1000310a:	0039      	movs	r1, r7
1000310c:	f7ff fdf6 	bl	10002cfc <alarm_pool_add_alarm_at.constprop.0>
10003110:	2800      	cmp	r0, #0
10003112:	dbe6      	blt.n	100030e2 <sleep_until+0x2e>
10003114:	2300      	movs	r3, #0
10003116:	4698      	mov	r8, r3
10003118:	46bc      	mov	ip, r7
1000311a:	4a0f      	ldr	r2, [pc, #60]	; (10003158 <sleep_until+0xa4>)
1000311c:	4f0f      	ldr	r7, [pc, #60]	; (1000315c <sleep_until+0xa8>)
1000311e:	6a7b      	ldr	r3, [r7, #36]	; 0x24
10003120:	459c      	cmp	ip, r3
10003122:	d804      	bhi.n	1000312e <sleep_until+0x7a>
10003124:	6ab9      	ldr	r1, [r7, #40]	; 0x28
10003126:	428e      	cmp	r6, r1
10003128:	d9db      	bls.n	100030e2 <sleep_until+0x2e>
1000312a:	459c      	cmp	ip, r3
1000312c:	d1d9      	bne.n	100030e2 <sleep_until+0x2e>
1000312e:	6811      	ldr	r1, [r2, #0]
10003130:	f3ef 8010 	mrs	r0, PRIMASK
10003134:	b672      	cpsid	i
10003136:	680b      	ldr	r3, [r1, #0]
10003138:	2b00      	cmp	r3, #0
1000313a:	d0fc      	beq.n	10003136 <sleep_until+0x82>
1000313c:	f3bf 8f5f 	dmb	sy
10003140:	6813      	ldr	r3, [r2, #0]
10003142:	f3bf 8f5f 	dmb	sy
10003146:	4641      	mov	r1, r8
10003148:	6019      	str	r1, [r3, #0]
1000314a:	f380 8810 	msr	PRIMASK, r0
1000314e:	bf20      	wfe
10003150:	e7e5      	b.n	1000311e <sleep_until+0x6a>
10003152:	2a00      	cmp	r2, #0
10003154:	d0c5      	beq.n	100030e2 <sleep_until+0x2e>
10003156:	e7d7      	b.n	10003108 <sleep_until+0x54>
10003158:	2002ab9c 	.word	0x2002ab9c
1000315c:	40054000 	.word	0x40054000

10003160 <sleep_ms>:
10003160:	b570      	push	{r4, r5, r6, lr}
10003162:	0006      	movs	r6, r0
10003164:	f000 f880 	bl	10003268 <time_us_64>
10003168:	22fa      	movs	r2, #250	; 0xfa
1000316a:	0004      	movs	r4, r0
1000316c:	000d      	movs	r5, r1
1000316e:	2300      	movs	r3, #0
10003170:	0030      	movs	r0, r6
10003172:	2100      	movs	r1, #0
10003174:	0092      	lsls	r2, r2, #2
10003176:	f001 fa91 	bl	1000469c <__wrap___aeabi_lmul>
1000317a:	1900      	adds	r0, r0, r4
1000317c:	4169      	adcs	r1, r5
1000317e:	428d      	cmp	r5, r1
10003180:	d805      	bhi.n	1000318e <sleep_ms+0x2e>
10003182:	d002      	beq.n	1000318a <sleep_ms+0x2a>
10003184:	f7ff ff96 	bl	100030b4 <sleep_until>
10003188:	bd70      	pop	{r4, r5, r6, pc}
1000318a:	4284      	cmp	r4, r0
1000318c:	d9fa      	bls.n	10003184 <sleep_ms+0x24>
1000318e:	2001      	movs	r0, #1
10003190:	4240      	negs	r0, r0
10003192:	17c1      	asrs	r1, r0, #31
10003194:	e7f6      	b.n	10003184 <sleep_ms+0x24>
10003196:	46c0      	nop			; (mov r8, r8)

10003198 <hardware_alarm_irq_handler>:
10003198:	b5f0      	push	{r4, r5, r6, r7, lr}
1000319a:	46d6      	mov	lr, sl
1000319c:	464f      	mov	r7, r9
1000319e:	4646      	mov	r6, r8
100031a0:	b5c0      	push	{r6, r7, lr}
100031a2:	f3ef 8305 	mrs	r3, IPSR
100031a6:	223f      	movs	r2, #63	; 0x3f
100031a8:	4013      	ands	r3, r2
100031aa:	0018      	movs	r0, r3
100031ac:	3810      	subs	r0, #16
100031ae:	f3ef 8c10 	mrs	ip, PRIMASK
100031b2:	b672      	cpsid	i
100031b4:	4d20      	ldr	r5, [pc, #128]	; (10003238 <hardware_alarm_irq_handler+0xa0>)
100031b6:	682a      	ldr	r2, [r5, #0]
100031b8:	2a00      	cmp	r2, #0
100031ba:	d0fc      	beq.n	100031b6 <hardware_alarm_irq_handler+0x1e>
100031bc:	f3bf 8f5f 	dmb	sy
100031c0:	2201      	movs	r2, #1
100031c2:	0011      	movs	r1, r2
100031c4:	4081      	lsls	r1, r0
100031c6:	4c1d      	ldr	r4, [pc, #116]	; (1000323c <hardware_alarm_irq_handler+0xa4>)
100031c8:	4688      	mov	r8, r1
100031ca:	6361      	str	r1, [r4, #52]	; 0x34
100031cc:	491c      	ldr	r1, [pc, #112]	; (10003240 <hardware_alarm_irq_handler+0xa8>)
100031ce:	0017      	movs	r7, r2
100031d0:	780e      	ldrb	r6, [r1, #0]
100031d2:	468a      	mov	sl, r1
100031d4:	0031      	movs	r1, r6
100031d6:	40c1      	lsrs	r1, r0
100031d8:	400f      	ands	r7, r1
100031da:	420a      	tst	r2, r1
100031dc:	d109      	bne.n	100031f2 <hardware_alarm_irq_handler+0x5a>
100031de:	f3bf 8f5f 	dmb	sy
100031e2:	602f      	str	r7, [r5, #0]
100031e4:	f38c 8810 	msr	PRIMASK, ip
100031e8:	bce0      	pop	{r5, r6, r7}
100031ea:	46ba      	mov	sl, r7
100031ec:	46b1      	mov	r9, r6
100031ee:	46a8      	mov	r8, r5
100031f0:	bdf0      	pop	{r4, r5, r6, r7, pc}
100031f2:	4914      	ldr	r1, [pc, #80]	; (10003244 <hardware_alarm_irq_handler+0xac>)
100031f4:	0082      	lsls	r2, r0, #2
100031f6:	6a64      	ldr	r4, [r4, #36]	; 0x24
100031f8:	5851      	ldr	r1, [r2, r1]
100031fa:	428c      	cmp	r4, r1
100031fc:	d30f      	bcc.n	1000321e <hardware_alarm_irq_handler+0x86>
100031fe:	4b12      	ldr	r3, [pc, #72]	; (10003248 <hardware_alarm_irq_handler+0xb0>)
10003200:	58d2      	ldr	r2, [r2, r3]
10003202:	4643      	mov	r3, r8
10003204:	439e      	bics	r6, r3
10003206:	4653      	mov	r3, sl
10003208:	701e      	strb	r6, [r3, #0]
1000320a:	f3bf 8f5f 	dmb	sy
1000320e:	2300      	movs	r3, #0
10003210:	602b      	str	r3, [r5, #0]
10003212:	f38c 8810 	msr	PRIMASK, ip
10003216:	2a00      	cmp	r2, #0
10003218:	d0e6      	beq.n	100031e8 <hardware_alarm_irq_handler+0x50>
1000321a:	4790      	blx	r2
1000321c:	e7e4      	b.n	100031e8 <hardware_alarm_irq_handler+0x50>
1000321e:	4a0b      	ldr	r2, [pc, #44]	; (1000324c <hardware_alarm_irq_handler+0xb4>)
10003220:	009b      	lsls	r3, r3, #2
10003222:	4690      	mov	r8, r2
10003224:	4443      	add	r3, r8
10003226:	681a      	ldr	r2, [r3, #0]
10003228:	601a      	str	r2, [r3, #0]
1000322a:	f3bf 8f5f 	dmb	sy
1000322e:	2300      	movs	r3, #0
10003230:	602b      	str	r3, [r5, #0]
10003232:	f38c 8810 	msr	PRIMASK, ip
10003236:	e7d7      	b.n	100031e8 <hardware_alarm_irq_handler+0x50>
10003238:	d0000128 	.word	0xd0000128
1000323c:	40054000 	.word	0x40054000
10003240:	2002abcb 	.word	0x2002abcb
10003244:	2002aba0 	.word	0x2002aba0
10003248:	20027a00 	.word	0x20027a00
1000324c:	40053fd0 	.word	0x40053fd0

10003250 <hardware_alarm_claim>:
10003250:	b510      	push	{r4, lr}
10003252:	0001      	movs	r1, r0
10003254:	4a02      	ldr	r2, [pc, #8]	; (10003260 <hardware_alarm_claim+0x10>)
10003256:	4803      	ldr	r0, [pc, #12]	; (10003264 <hardware_alarm_claim+0x14>)
10003258:	f7ff faaa 	bl	100027b0 <hw_claim_or_assert>
1000325c:	bd10      	pop	{r4, pc}
1000325e:	46c0      	nop			; (mov r8, r8)
10003260:	1000874c 	.word	0x1000874c
10003264:	2002abc3 	.word	0x2002abc3

10003268 <time_us_64>:
10003268:	4b03      	ldr	r3, [pc, #12]	; (10003278 <time_us_64+0x10>)
1000326a:	6a59      	ldr	r1, [r3, #36]	; 0x24
1000326c:	000a      	movs	r2, r1
1000326e:	6a98      	ldr	r0, [r3, #40]	; 0x28
10003270:	6a59      	ldr	r1, [r3, #36]	; 0x24
10003272:	428a      	cmp	r2, r1
10003274:	d1fa      	bne.n	1000326c <time_us_64+0x4>
10003276:	4770      	bx	lr
10003278:	40054000 	.word	0x40054000

1000327c <busy_wait_until>:
1000327c:	4a06      	ldr	r2, [pc, #24]	; (10003298 <busy_wait_until+0x1c>)
1000327e:	6a53      	ldr	r3, [r2, #36]	; 0x24
10003280:	4299      	cmp	r1, r3
10003282:	d8fc      	bhi.n	1000327e <busy_wait_until+0x2>
10003284:	d107      	bne.n	10003296 <busy_wait_until+0x1a>
10003286:	4b04      	ldr	r3, [pc, #16]	; (10003298 <busy_wait_until+0x1c>)
10003288:	e002      	b.n	10003290 <busy_wait_until+0x14>
1000328a:	6a5a      	ldr	r2, [r3, #36]	; 0x24
1000328c:	4291      	cmp	r1, r2
1000328e:	d102      	bne.n	10003296 <busy_wait_until+0x1a>
10003290:	6a9a      	ldr	r2, [r3, #40]	; 0x28
10003292:	4282      	cmp	r2, r0
10003294:	d3f9      	bcc.n	1000328a <busy_wait_until+0xe>
10003296:	4770      	bx	lr
10003298:	40054000 	.word	0x40054000

1000329c <hardware_alarm_set_callback>:
1000329c:	b570      	push	{r4, r5, r6, lr}
1000329e:	0004      	movs	r4, r0
100032a0:	000d      	movs	r5, r1
100032a2:	f3ef 8610 	mrs	r6, PRIMASK
100032a6:	b672      	cpsid	i
100032a8:	4a1a      	ldr	r2, [pc, #104]	; (10003314 <hardware_alarm_set_callback+0x78>)
100032aa:	6813      	ldr	r3, [r2, #0]
100032ac:	2b00      	cmp	r3, #0
100032ae:	d0fc      	beq.n	100032aa <hardware_alarm_set_callback+0xe>
100032b0:	f3bf 8f5f 	dmb	sy
100032b4:	2d00      	cmp	r5, #0
100032b6:	d01b      	beq.n	100032f0 <hardware_alarm_set_callback+0x54>
100032b8:	0020      	movs	r0, r4
100032ba:	f000 fcdb 	bl	10003c74 <irq_get_vtable_handler>
100032be:	4916      	ldr	r1, [pc, #88]	; (10003318 <hardware_alarm_set_callback+0x7c>)
100032c0:	4281      	cmp	r1, r0
100032c2:	d00a      	beq.n	100032da <hardware_alarm_set_callback+0x3e>
100032c4:	0020      	movs	r0, r4
100032c6:	f000 fcdd 	bl	10003c84 <irq_set_exclusive_handler>
100032ca:	2101      	movs	r1, #1
100032cc:	0020      	movs	r0, r4
100032ce:	f000 fcb3 	bl	10003c38 <irq_set_enabled>
100032d2:	2301      	movs	r3, #1
100032d4:	40a3      	lsls	r3, r4
100032d6:	4a11      	ldr	r2, [pc, #68]	; (1000331c <hardware_alarm_set_callback+0x80>)
100032d8:	6013      	str	r3, [r2, #0]
100032da:	4b11      	ldr	r3, [pc, #68]	; (10003320 <hardware_alarm_set_callback+0x84>)
100032dc:	00a4      	lsls	r4, r4, #2
100032de:	50e5      	str	r5, [r4, r3]
100032e0:	f3bf 8f5f 	dmb	sy
100032e4:	2200      	movs	r2, #0
100032e6:	4b0b      	ldr	r3, [pc, #44]	; (10003314 <hardware_alarm_set_callback+0x78>)
100032e8:	601a      	str	r2, [r3, #0]
100032ea:	f386 8810 	msr	PRIMASK, r6
100032ee:	bd70      	pop	{r4, r5, r6, pc}
100032f0:	4b0b      	ldr	r3, [pc, #44]	; (10003320 <hardware_alarm_set_callback+0x84>)
100032f2:	00a2      	lsls	r2, r4, #2
100032f4:	50d5      	str	r5, [r2, r3]
100032f6:	2201      	movs	r2, #1
100032f8:	40a2      	lsls	r2, r4
100032fa:	490a      	ldr	r1, [pc, #40]	; (10003324 <hardware_alarm_set_callback+0x88>)
100032fc:	0020      	movs	r0, r4
100032fe:	780b      	ldrb	r3, [r1, #0]
10003300:	4393      	bics	r3, r2
10003302:	700b      	strb	r3, [r1, #0]
10003304:	4904      	ldr	r1, [pc, #16]	; (10003318 <hardware_alarm_set_callback+0x7c>)
10003306:	f000 fce7 	bl	10003cd8 <irq_remove_handler>
1000330a:	2100      	movs	r1, #0
1000330c:	0020      	movs	r0, r4
1000330e:	f000 fc93 	bl	10003c38 <irq_set_enabled>
10003312:	e7e5      	b.n	100032e0 <hardware_alarm_set_callback+0x44>
10003314:	d0000128 	.word	0xd0000128
10003318:	10003199 	.word	0x10003199
1000331c:	40056038 	.word	0x40056038
10003320:	20027a00 	.word	0x20027a00
10003324:	2002abcb 	.word	0x2002abcb

10003328 <hardware_alarm_set_target>:
10003328:	b5f0      	push	{r4, r5, r6, r7, lr}
1000332a:	464f      	mov	r7, r9
1000332c:	46d6      	mov	lr, sl
1000332e:	4646      	mov	r6, r8
10003330:	b5c0      	push	{r6, r7, lr}
10003332:	0007      	movs	r7, r0
10003334:	4c2f      	ldr	r4, [pc, #188]	; (100033f4 <hardware_alarm_set_target+0xcc>)
10003336:	6a61      	ldr	r1, [r4, #36]	; 0x24
10003338:	000d      	movs	r5, r1
1000333a:	6aa6      	ldr	r6, [r4, #40]	; 0x28
1000333c:	6a61      	ldr	r1, [r4, #36]	; 0x24
1000333e:	42a9      	cmp	r1, r5
10003340:	d1fa      	bne.n	10003338 <hardware_alarm_set_target+0x10>
10003342:	428b      	cmp	r3, r1
10003344:	d808      	bhi.n	10003358 <hardware_alarm_set_target+0x30>
10003346:	d005      	beq.n	10003354 <hardware_alarm_set_target+0x2c>
10003348:	2001      	movs	r0, #1
1000334a:	bce0      	pop	{r5, r6, r7}
1000334c:	46ba      	mov	sl, r7
1000334e:	46b1      	mov	r9, r6
10003350:	46a8      	mov	r8, r5
10003352:	bdf0      	pop	{r4, r5, r6, r7, pc}
10003354:	42b2      	cmp	r2, r6
10003356:	d9f7      	bls.n	10003348 <hardware_alarm_set_target+0x20>
10003358:	f3ef 8a10 	mrs	sl, PRIMASK
1000335c:	b672      	cpsid	i
1000335e:	4826      	ldr	r0, [pc, #152]	; (100033f8 <hardware_alarm_set_target+0xd0>)
10003360:	6801      	ldr	r1, [r0, #0]
10003362:	2900      	cmp	r1, #0
10003364:	d0fc      	beq.n	10003360 <hardware_alarm_set_target+0x38>
10003366:	f3bf 8f5f 	dmb	sy
1000336a:	2501      	movs	r5, #1
1000336c:	40bd      	lsls	r5, r7
1000336e:	4923      	ldr	r1, [pc, #140]	; (100033fc <hardware_alarm_set_target+0xd4>)
10003370:	4c20      	ldr	r4, [pc, #128]	; (100033f4 <hardware_alarm_set_target+0xcc>)
10003372:	4688      	mov	r8, r1
10003374:	7809      	ldrb	r1, [r1, #0]
10003376:	4689      	mov	r9, r1
10003378:	4329      	orrs	r1, r5
1000337a:	b2c9      	uxtb	r1, r1
1000337c:	468c      	mov	ip, r1
1000337e:	4641      	mov	r1, r8
10003380:	4660      	mov	r0, ip
10003382:	7008      	strb	r0, [r1, #0]
10003384:	1d39      	adds	r1, r7, #4
10003386:	481e      	ldr	r0, [pc, #120]	; (10003400 <hardware_alarm_set_target+0xd8>)
10003388:	0089      	lsls	r1, r1, #2
1000338a:	6365      	str	r5, [r4, #52]	; 0x34
1000338c:	510a      	str	r2, [r1, r4]
1000338e:	00b9      	lsls	r1, r7, #2
10003390:	500b      	str	r3, [r1, r0]
10003392:	6a21      	ldr	r1, [r4, #32]
10003394:	2000      	movs	r0, #0
10003396:	4229      	tst	r1, r5
10003398:	d019      	beq.n	100033ce <hardware_alarm_set_target+0xa6>
1000339a:	6a61      	ldr	r1, [r4, #36]	; 0x24
1000339c:	0008      	movs	r0, r1
1000339e:	6aa6      	ldr	r6, [r4, #40]	; 0x28
100033a0:	6a61      	ldr	r1, [r4, #36]	; 0x24
100033a2:	4281      	cmp	r1, r0
100033a4:	d1fa      	bne.n	1000339c <hardware_alarm_set_target+0x74>
100033a6:	428b      	cmp	r3, r1
100033a8:	d819      	bhi.n	100033de <hardware_alarm_set_target+0xb6>
100033aa:	d101      	bne.n	100033b0 <hardware_alarm_set_target+0x88>
100033ac:	42b2      	cmp	r2, r6
100033ae:	d816      	bhi.n	100033de <hardware_alarm_set_target+0xb6>
100033b0:	45cc      	cmp	ip, r9
100033b2:	d01d      	beq.n	100033f0 <hardware_alarm_set_target+0xc8>
100033b4:	4b0f      	ldr	r3, [pc, #60]	; (100033f4 <hardware_alarm_set_target+0xcc>)
100033b6:	201f      	movs	r0, #31
100033b8:	621d      	str	r5, [r3, #32]
100033ba:	635d      	str	r5, [r3, #52]	; 0x34
100033bc:	2301      	movs	r3, #1
100033be:	4007      	ands	r7, r0
100033c0:	40bb      	lsls	r3, r7
100033c2:	4a10      	ldr	r2, [pc, #64]	; (10003404 <hardware_alarm_set_target+0xdc>)
100033c4:	381e      	subs	r0, #30
100033c6:	6013      	str	r3, [r2, #0]
100033c8:	4643      	mov	r3, r8
100033ca:	464a      	mov	r2, r9
100033cc:	701a      	strb	r2, [r3, #0]
100033ce:	f3bf 8f5f 	dmb	sy
100033d2:	2200      	movs	r2, #0
100033d4:	4b08      	ldr	r3, [pc, #32]	; (100033f8 <hardware_alarm_set_target+0xd0>)
100033d6:	601a      	str	r2, [r3, #0]
100033d8:	f38a 8810 	msr	PRIMASK, sl
100033dc:	e7b5      	b.n	1000334a <hardware_alarm_set_target+0x22>
100033de:	2000      	movs	r0, #0
100033e0:	f3bf 8f5f 	dmb	sy
100033e4:	2200      	movs	r2, #0
100033e6:	4b04      	ldr	r3, [pc, #16]	; (100033f8 <hardware_alarm_set_target+0xd0>)
100033e8:	601a      	str	r2, [r3, #0]
100033ea:	f38a 8810 	msr	PRIMASK, sl
100033ee:	e7ac      	b.n	1000334a <hardware_alarm_set_target+0x22>
100033f0:	2001      	movs	r0, #1
100033f2:	e7ec      	b.n	100033ce <hardware_alarm_set_target+0xa6>
100033f4:	40054000 	.word	0x40054000
100033f8:	d0000128 	.word	0xd0000128
100033fc:	2002abcb 	.word	0x2002abcb
10003400:	2002aba0 	.word	0x2002aba0
10003404:	e000e280 	.word	0xe000e280

10003408 <hardware_alarm_cancel>:
10003408:	f3ef 8c10 	mrs	ip, PRIMASK
1000340c:	b672      	cpsid	i
1000340e:	490a      	ldr	r1, [pc, #40]	; (10003438 <hardware_alarm_cancel+0x30>)
10003410:	680b      	ldr	r3, [r1, #0]
10003412:	2b00      	cmp	r3, #0
10003414:	d0fc      	beq.n	10003410 <hardware_alarm_cancel+0x8>
10003416:	f3bf 8f5f 	dmb	sy
1000341a:	2301      	movs	r3, #1
1000341c:	4083      	lsls	r3, r0
1000341e:	4a07      	ldr	r2, [pc, #28]	; (1000343c <hardware_alarm_cancel+0x34>)
10003420:	4807      	ldr	r0, [pc, #28]	; (10003440 <hardware_alarm_cancel+0x38>)
10003422:	6213      	str	r3, [r2, #32]
10003424:	7802      	ldrb	r2, [r0, #0]
10003426:	439a      	bics	r2, r3
10003428:	7002      	strb	r2, [r0, #0]
1000342a:	f3bf 8f5f 	dmb	sy
1000342e:	2300      	movs	r3, #0
10003430:	600b      	str	r3, [r1, #0]
10003432:	f38c 8810 	msr	PRIMASK, ip
10003436:	4770      	bx	lr
10003438:	d0000128 	.word	0xd0000128
1000343c:	40054000 	.word	0x40054000
10003440:	2002abcb 	.word	0x2002abcb

10003444 <lock_init>:
10003444:	4b02      	ldr	r3, [pc, #8]	; (10003450 <lock_init+0xc>)
10003446:	469c      	mov	ip, r3
10003448:	4461      	add	r1, ip
1000344a:	0089      	lsls	r1, r1, #2
1000344c:	6001      	str	r1, [r0, #0]
1000344e:	4770      	bx	lr
10003450:	34000040 	.word	0x34000040

10003454 <mutex_init>:
10003454:	b510      	push	{r4, lr}
10003456:	0004      	movs	r4, r0
10003458:	f7ff fa30 	bl	100028bc <next_striped_spin_lock_num>
1000345c:	0001      	movs	r1, r0
1000345e:	0020      	movs	r0, r4
10003460:	f7ff fff0 	bl	10003444 <lock_init>
10003464:	23ff      	movs	r3, #255	; 0xff
10003466:	80a3      	strh	r3, [r4, #4]
10003468:	f3bf 8f5f 	dmb	sy
1000346c:	bd10      	pop	{r4, pc}
1000346e:	46c0      	nop			; (mov r8, r8)

10003470 <recursive_mutex_init>:
10003470:	b510      	push	{r4, lr}
10003472:	0004      	movs	r4, r0
10003474:	f7ff fa22 	bl	100028bc <next_striped_spin_lock_num>
10003478:	0001      	movs	r1, r0
1000347a:	0020      	movs	r0, r4
1000347c:	f7ff ffe2 	bl	10003444 <lock_init>
10003480:	2301      	movs	r3, #1
10003482:	425b      	negs	r3, r3
10003484:	80a3      	strh	r3, [r4, #4]
10003486:	f3bf 8f5f 	dmb	sy
1000348a:	bd10      	pop	{r4, pc}

1000348c <ph_merge_nodes>:
1000348c:	b570      	push	{r4, r5, r6, lr}
1000348e:	0005      	movs	r5, r0
10003490:	0014      	movs	r4, r2
10003492:	0016      	movs	r6, r2
10003494:	2900      	cmp	r1, #0
10003496:	d015      	beq.n	100034c4 <ph_merge_nodes+0x38>
10003498:	000c      	movs	r4, r1
1000349a:	2a00      	cmp	r2, #0
1000349c:	d012      	beq.n	100034c4 <ph_merge_nodes+0x38>
1000349e:	6880      	ldr	r0, [r0, #8]
100034a0:	686b      	ldr	r3, [r5, #4]
100034a2:	4798      	blx	r3
100034a4:	6829      	ldr	r1, [r5, #0]
100034a6:	2800      	cmp	r0, #0
100034a8:	d00e      	beq.n	100034c8 <ph_merge_nodes+0x3c>
100034aa:	0073      	lsls	r3, r6, #1
100034ac:	199b      	adds	r3, r3, r6
100034ae:	0062      	lsls	r2, r4, #1
100034b0:	3b03      	subs	r3, #3
100034b2:	1912      	adds	r2, r2, r4
100034b4:	18cb      	adds	r3, r1, r3
100034b6:	3a03      	subs	r2, #3
100034b8:	709c      	strb	r4, [r3, #2]
100034ba:	1888      	adds	r0, r1, r2
100034bc:	5c8a      	ldrb	r2, [r1, r2]
100034be:	2a00      	cmp	r2, #0
100034c0:	d115      	bne.n	100034ee <ph_merge_nodes+0x62>
100034c2:	7006      	strb	r6, [r0, #0]
100034c4:	0020      	movs	r0, r4
100034c6:	bd70      	pop	{r4, r5, r6, pc}
100034c8:	0063      	lsls	r3, r4, #1
100034ca:	191b      	adds	r3, r3, r4
100034cc:	0072      	lsls	r2, r6, #1
100034ce:	3b03      	subs	r3, #3
100034d0:	1992      	adds	r2, r2, r6
100034d2:	18cb      	adds	r3, r1, r3
100034d4:	3a03      	subs	r2, #3
100034d6:	709e      	strb	r6, [r3, #2]
100034d8:	1888      	adds	r0, r1, r2
100034da:	5c8a      	ldrb	r2, [r1, r2]
100034dc:	2a00      	cmp	r2, #0
100034de:	d102      	bne.n	100034e6 <ph_merge_nodes+0x5a>
100034e0:	7004      	strb	r4, [r0, #0]
100034e2:	0034      	movs	r4, r6
100034e4:	e7ee      	b.n	100034c4 <ph_merge_nodes+0x38>
100034e6:	705a      	strb	r2, [r3, #1]
100034e8:	7004      	strb	r4, [r0, #0]
100034ea:	0034      	movs	r4, r6
100034ec:	e7ea      	b.n	100034c4 <ph_merge_nodes+0x38>
100034ee:	705a      	strb	r2, [r3, #1]
100034f0:	7006      	strb	r6, [r0, #0]
100034f2:	e7e7      	b.n	100034c4 <ph_merge_nodes+0x38>

100034f4 <ph_post_alloc_init>:
100034f4:	b530      	push	{r4, r5, lr}
100034f6:	6083      	str	r3, [r0, #8]
100034f8:	2300      	movs	r3, #0
100034fa:	b2cc      	uxtb	r4, r1
100034fc:	7343      	strb	r3, [r0, #13]
100034fe:	3301      	adds	r3, #1
10003500:	7304      	strb	r4, [r0, #12]
10003502:	6042      	str	r2, [r0, #4]
10003504:	7383      	strb	r3, [r0, #14]
10003506:	73c4      	strb	r4, [r0, #15]
10003508:	000d      	movs	r5, r1
1000350a:	6800      	ldr	r0, [r0, #0]
1000350c:	2c01      	cmp	r4, #1
1000350e:	d906      	bls.n	1000351e <ph_post_alloc_init+0x2a>
10003510:	1c42      	adds	r2, r0, #1
10003512:	3301      	adds	r3, #1
10003514:	b2db      	uxtb	r3, r3
10003516:	7013      	strb	r3, [r2, #0]
10003518:	3203      	adds	r2, #3
1000351a:	429c      	cmp	r4, r3
1000351c:	d1f9      	bne.n	10003512 <ph_post_alloc_init+0x1e>
1000351e:	21ff      	movs	r1, #255	; 0xff
10003520:	4029      	ands	r1, r5
10003522:	004b      	lsls	r3, r1, #1
10003524:	1859      	adds	r1, r3, r1
10003526:	2300      	movs	r3, #0
10003528:	1840      	adds	r0, r0, r1
1000352a:	3803      	subs	r0, #3
1000352c:	7043      	strb	r3, [r0, #1]
1000352e:	bd30      	pop	{r4, r5, pc}

10003530 <ph_merge_two_pass>:
10003530:	b5f8      	push	{r3, r4, r5, r6, r7, lr}
10003532:	46ce      	mov	lr, r9
10003534:	4647      	mov	r7, r8
10003536:	0006      	movs	r6, r0
10003538:	000c      	movs	r4, r1
1000353a:	b580      	push	{r7, lr}
1000353c:	2900      	cmp	r1, #0
1000353e:	d007      	beq.n	10003550 <ph_merge_two_pass+0x20>
10003540:	004d      	lsls	r5, r1, #1
10003542:	6803      	ldr	r3, [r0, #0]
10003544:	186d      	adds	r5, r5, r1
10003546:	3d03      	subs	r5, #3
10003548:	195a      	adds	r2, r3, r5
1000354a:	7857      	ldrb	r7, [r2, #1]
1000354c:	2f00      	cmp	r7, #0
1000354e:	d104      	bne.n	1000355a <ph_merge_two_pass+0x2a>
10003550:	0020      	movs	r0, r4
10003552:	bcc0      	pop	{r6, r7}
10003554:	46b9      	mov	r9, r7
10003556:	46b0      	mov	r8, r6
10003558:	bdf8      	pop	{r3, r4, r5, r6, r7, pc}
1000355a:	0079      	lsls	r1, r7, #1
1000355c:	19c9      	adds	r1, r1, r7
1000355e:	3903      	subs	r1, #3
10003560:	4688      	mov	r8, r1
10003562:	4443      	add	r3, r8
10003564:	7859      	ldrb	r1, [r3, #1]
10003566:	4689      	mov	r9, r1
10003568:	2100      	movs	r1, #0
1000356a:	7059      	strb	r1, [r3, #1]
1000356c:	7051      	strb	r1, [r2, #1]
1000356e:	6873      	ldr	r3, [r6, #4]
10003570:	003a      	movs	r2, r7
10003572:	0021      	movs	r1, r4
10003574:	6880      	ldr	r0, [r0, #8]
10003576:	4798      	blx	r3
10003578:	6833      	ldr	r3, [r6, #0]
1000357a:	2800      	cmp	r0, #0
1000357c:	d014      	beq.n	100035a8 <ph_merge_two_pass+0x78>
1000357e:	4642      	mov	r2, r8
10003580:	189a      	adds	r2, r3, r2
10003582:	7094      	strb	r4, [r2, #2]
10003584:	1959      	adds	r1, r3, r5
10003586:	5d5b      	ldrb	r3, [r3, r5]
10003588:	2b00      	cmp	r3, #0
1000358a:	d000      	beq.n	1000358e <ph_merge_two_pass+0x5e>
1000358c:	7053      	strb	r3, [r2, #1]
1000358e:	700f      	strb	r7, [r1, #0]
10003590:	0027      	movs	r7, r4
10003592:	4649      	mov	r1, r9
10003594:	0030      	movs	r0, r6
10003596:	f7ff ffcb 	bl	10003530 <ph_merge_two_pass>
1000359a:	0039      	movs	r1, r7
1000359c:	0002      	movs	r2, r0
1000359e:	0030      	movs	r0, r6
100035a0:	f7ff ff74 	bl	1000348c <ph_merge_nodes>
100035a4:	0004      	movs	r4, r0
100035a6:	e7d3      	b.n	10003550 <ph_merge_two_pass+0x20>
100035a8:	4642      	mov	r2, r8
100035aa:	4641      	mov	r1, r8
100035ac:	195d      	adds	r5, r3, r5
100035ae:	70af      	strb	r7, [r5, #2]
100035b0:	189a      	adds	r2, r3, r2
100035b2:	5c5b      	ldrb	r3, [r3, r1]
100035b4:	2b00      	cmp	r3, #0
100035b6:	d000      	beq.n	100035ba <ph_merge_two_pass+0x8a>
100035b8:	706b      	strb	r3, [r5, #1]
100035ba:	7014      	strb	r4, [r2, #0]
100035bc:	e7e9      	b.n	10003592 <ph_merge_two_pass+0x62>
100035be:	46c0      	nop			; (mov r8, r8)

100035c0 <ph_remove_any_head>:
100035c0:	b5f0      	push	{r4, r5, r6, r7, lr}
100035c2:	4657      	mov	r7, sl
100035c4:	4645      	mov	r5, r8
100035c6:	46de      	mov	lr, fp
100035c8:	464e      	mov	r6, r9
100035ca:	b5e0      	push	{r5, r6, r7, lr}
100035cc:	000d      	movs	r5, r1
100035ce:	006b      	lsls	r3, r5, #1
100035d0:	6801      	ldr	r1, [r0, #0]
100035d2:	195b      	adds	r3, r3, r5
100035d4:	1edf      	subs	r7, r3, #3
100035d6:	0004      	movs	r4, r0
100035d8:	5dc8      	ldrb	r0, [r1, r7]
100035da:	b083      	sub	sp, #12
100035dc:	9201      	str	r2, [sp, #4]
100035de:	19ca      	adds	r2, r1, r7
100035e0:	2800      	cmp	r0, #0
100035e2:	d04c      	beq.n	1000367e <ph_remove_any_head+0xbe>
100035e4:	0043      	lsls	r3, r0, #1
100035e6:	181b      	adds	r3, r3, r0
100035e8:	3b03      	subs	r3, #3
100035ea:	18cb      	adds	r3, r1, r3
100035ec:	785e      	ldrb	r6, [r3, #1]
100035ee:	46b4      	mov	ip, r6
100035f0:	2e00      	cmp	r6, #0
100035f2:	d116      	bne.n	10003622 <ph_remove_any_head+0x62>
100035f4:	9e01      	ldr	r6, [sp, #4]
100035f6:	2e00      	cmp	r6, #0
100035f8:	d03e      	beq.n	10003678 <ph_remove_any_head+0xb8>
100035fa:	7be6      	ldrb	r6, [r4, #15]
100035fc:	2e00      	cmp	r6, #0
100035fe:	d004      	beq.n	1000360a <ph_remove_any_head+0x4a>
10003600:	0073      	lsls	r3, r6, #1
10003602:	199b      	adds	r3, r3, r6
10003604:	18cb      	adds	r3, r1, r3
10003606:	3b03      	subs	r3, #3
10003608:	705d      	strb	r5, [r3, #1]
1000360a:	73e5      	strb	r5, [r4, #15]
1000360c:	2800      	cmp	r0, #0
1000360e:	d12f      	bne.n	10003670 <ph_remove_any_head+0xb0>
10003610:	2300      	movs	r3, #0
10003612:	7053      	strb	r3, [r2, #1]
10003614:	b003      	add	sp, #12
10003616:	bcf0      	pop	{r4, r5, r6, r7}
10003618:	46bb      	mov	fp, r7
1000361a:	46b2      	mov	sl, r6
1000361c:	46a9      	mov	r9, r5
1000361e:	46a0      	mov	r8, r4
10003620:	bdf0      	pop	{r4, r5, r6, r7, pc}
10003622:	0072      	lsls	r2, r6, #1
10003624:	4462      	add	r2, ip
10003626:	3a03      	subs	r2, #3
10003628:	1889      	adds	r1, r1, r2
1000362a:	784a      	ldrb	r2, [r1, #1]
1000362c:	4690      	mov	r8, r2
1000362e:	2200      	movs	r2, #0
10003630:	704a      	strb	r2, [r1, #1]
10003632:	4691      	mov	r9, r2
10003634:	705a      	strb	r2, [r3, #1]
10003636:	0001      	movs	r1, r0
10003638:	0032      	movs	r2, r6
1000363a:	0020      	movs	r0, r4
1000363c:	f7ff ff26 	bl	1000348c <ph_merge_nodes>
10003640:	4643      	mov	r3, r8
10003642:	4682      	mov	sl, r0
10003644:	2b00      	cmp	r3, #0
10003646:	d007      	beq.n	10003658 <ph_remove_any_head+0x98>
10003648:	005b      	lsls	r3, r3, #1
1000364a:	6821      	ldr	r1, [r4, #0]
1000364c:	4443      	add	r3, r8
1000364e:	3b03      	subs	r3, #3
10003650:	18cb      	adds	r3, r1, r3
10003652:	785a      	ldrb	r2, [r3, #1]
10003654:	2a00      	cmp	r2, #0
10003656:	d116      	bne.n	10003686 <ph_remove_any_head+0xc6>
10003658:	4642      	mov	r2, r8
1000365a:	4651      	mov	r1, sl
1000365c:	0020      	movs	r0, r4
1000365e:	f7ff ff15 	bl	1000348c <ph_merge_nodes>
10003662:	6821      	ldr	r1, [r4, #0]
10003664:	9b01      	ldr	r3, [sp, #4]
10003666:	19ca      	adds	r2, r1, r7
10003668:	2b00      	cmp	r3, #0
1000366a:	d1c6      	bne.n	100035fa <ph_remove_any_head+0x3a>
1000366c:	2800      	cmp	r0, #0
1000366e:	d0cf      	beq.n	10003610 <ph_remove_any_head+0x50>
10003670:	0043      	lsls	r3, r0, #1
10003672:	181b      	adds	r3, r3, r0
10003674:	3b03      	subs	r3, #3
10003676:	18cb      	adds	r3, r1, r3
10003678:	2100      	movs	r1, #0
1000367a:	7099      	strb	r1, [r3, #2]
1000367c:	e7c8      	b.n	10003610 <ph_remove_any_head+0x50>
1000367e:	9b01      	ldr	r3, [sp, #4]
10003680:	2b00      	cmp	r3, #0
10003682:	d1ba      	bne.n	100035fa <ph_remove_any_head+0x3a>
10003684:	e7c4      	b.n	10003610 <ph_remove_any_head+0x50>
10003686:	0050      	lsls	r0, r2, #1
10003688:	1880      	adds	r0, r0, r2
1000368a:	3803      	subs	r0, #3
1000368c:	1809      	adds	r1, r1, r0
1000368e:	7848      	ldrb	r0, [r1, #1]
10003690:	4683      	mov	fp, r0
10003692:	4648      	mov	r0, r9
10003694:	7048      	strb	r0, [r1, #1]
10003696:	7058      	strb	r0, [r3, #1]
10003698:	4641      	mov	r1, r8
1000369a:	0020      	movs	r0, r4
1000369c:	f7ff fef6 	bl	1000348c <ph_merge_nodes>
100036a0:	4659      	mov	r1, fp
100036a2:	4680      	mov	r8, r0
100036a4:	0020      	movs	r0, r4
100036a6:	f7ff ff43 	bl	10003530 <ph_merge_two_pass>
100036aa:	4641      	mov	r1, r8
100036ac:	0002      	movs	r2, r0
100036ae:	0020      	movs	r0, r4
100036b0:	f7ff feec 	bl	1000348c <ph_merge_nodes>
100036b4:	4680      	mov	r8, r0
100036b6:	e7cf      	b.n	10003658 <ph_remove_any_head+0x98>

100036b8 <ph_remove_head>:
100036b8:	b5f0      	push	{r4, r5, r6, r7, lr}
100036ba:	4657      	mov	r7, sl
100036bc:	4645      	mov	r5, r8
100036be:	46de      	mov	lr, fp
100036c0:	464e      	mov	r6, r9
100036c2:	b5e0      	push	{r5, r6, r7, lr}
100036c4:	b083      	sub	sp, #12
100036c6:	9101      	str	r1, [sp, #4]
100036c8:	7b45      	ldrb	r5, [r0, #13]
100036ca:	0004      	movs	r4, r0
100036cc:	006b      	lsls	r3, r5, #1
100036ce:	6800      	ldr	r0, [r0, #0]
100036d0:	195b      	adds	r3, r3, r5
100036d2:	1edf      	subs	r7, r3, #3
100036d4:	5dc1      	ldrb	r1, [r0, r7]
100036d6:	19c2      	adds	r2, r0, r7
100036d8:	2900      	cmp	r1, #0
100036da:	d04e      	beq.n	1000377a <ph_remove_head+0xc2>
100036dc:	004b      	lsls	r3, r1, #1
100036de:	185b      	adds	r3, r3, r1
100036e0:	3b03      	subs	r3, #3
100036e2:	18c3      	adds	r3, r0, r3
100036e4:	785e      	ldrb	r6, [r3, #1]
100036e6:	46b4      	mov	ip, r6
100036e8:	2e00      	cmp	r6, #0
100036ea:	d118      	bne.n	1000371e <ph_remove_head+0x66>
100036ec:	9e01      	ldr	r6, [sp, #4]
100036ee:	2e00      	cmp	r6, #0
100036f0:	d040      	beq.n	10003774 <ph_remove_head+0xbc>
100036f2:	7be6      	ldrb	r6, [r4, #15]
100036f4:	2e00      	cmp	r6, #0
100036f6:	d004      	beq.n	10003702 <ph_remove_head+0x4a>
100036f8:	0073      	lsls	r3, r6, #1
100036fa:	199b      	adds	r3, r3, r6
100036fc:	18c3      	adds	r3, r0, r3
100036fe:	3b03      	subs	r3, #3
10003700:	705d      	strb	r5, [r3, #1]
10003702:	73e5      	strb	r5, [r4, #15]
10003704:	2900      	cmp	r1, #0
10003706:	d131      	bne.n	1000376c <ph_remove_head+0xb4>
10003708:	2300      	movs	r3, #0
1000370a:	0028      	movs	r0, r5
1000370c:	7053      	strb	r3, [r2, #1]
1000370e:	7361      	strb	r1, [r4, #13]
10003710:	b003      	add	sp, #12
10003712:	bcf0      	pop	{r4, r5, r6, r7}
10003714:	46bb      	mov	fp, r7
10003716:	46b2      	mov	sl, r6
10003718:	46a9      	mov	r9, r5
1000371a:	46a0      	mov	r8, r4
1000371c:	bdf0      	pop	{r4, r5, r6, r7, pc}
1000371e:	0072      	lsls	r2, r6, #1
10003720:	4462      	add	r2, ip
10003722:	3a03      	subs	r2, #3
10003724:	1880      	adds	r0, r0, r2
10003726:	7842      	ldrb	r2, [r0, #1]
10003728:	4690      	mov	r8, r2
1000372a:	2200      	movs	r2, #0
1000372c:	7042      	strb	r2, [r0, #1]
1000372e:	4691      	mov	r9, r2
10003730:	705a      	strb	r2, [r3, #1]
10003732:	0020      	movs	r0, r4
10003734:	0032      	movs	r2, r6
10003736:	f7ff fea9 	bl	1000348c <ph_merge_nodes>
1000373a:	4643      	mov	r3, r8
1000373c:	4682      	mov	sl, r0
1000373e:	2b00      	cmp	r3, #0
10003740:	d007      	beq.n	10003752 <ph_remove_head+0x9a>
10003742:	005b      	lsls	r3, r3, #1
10003744:	6821      	ldr	r1, [r4, #0]
10003746:	4443      	add	r3, r8
10003748:	3b03      	subs	r3, #3
1000374a:	18cb      	adds	r3, r1, r3
1000374c:	785a      	ldrb	r2, [r3, #1]
1000374e:	2a00      	cmp	r2, #0
10003750:	d117      	bne.n	10003782 <ph_remove_head+0xca>
10003752:	4642      	mov	r2, r8
10003754:	4651      	mov	r1, sl
10003756:	0020      	movs	r0, r4
10003758:	f7ff fe98 	bl	1000348c <ph_merge_nodes>
1000375c:	9b01      	ldr	r3, [sp, #4]
1000375e:	0001      	movs	r1, r0
10003760:	6820      	ldr	r0, [r4, #0]
10003762:	19c2      	adds	r2, r0, r7
10003764:	2b00      	cmp	r3, #0
10003766:	d1c4      	bne.n	100036f2 <ph_remove_head+0x3a>
10003768:	2900      	cmp	r1, #0
1000376a:	d0cd      	beq.n	10003708 <ph_remove_head+0x50>
1000376c:	004b      	lsls	r3, r1, #1
1000376e:	185b      	adds	r3, r3, r1
10003770:	3b03      	subs	r3, #3
10003772:	18c3      	adds	r3, r0, r3
10003774:	2000      	movs	r0, #0
10003776:	7098      	strb	r0, [r3, #2]
10003778:	e7c6      	b.n	10003708 <ph_remove_head+0x50>
1000377a:	9b01      	ldr	r3, [sp, #4]
1000377c:	2b00      	cmp	r3, #0
1000377e:	d1b8      	bne.n	100036f2 <ph_remove_head+0x3a>
10003780:	e7c2      	b.n	10003708 <ph_remove_head+0x50>
10003782:	0050      	lsls	r0, r2, #1
10003784:	1880      	adds	r0, r0, r2
10003786:	3803      	subs	r0, #3
10003788:	1809      	adds	r1, r1, r0
1000378a:	7848      	ldrb	r0, [r1, #1]
1000378c:	4683      	mov	fp, r0
1000378e:	4648      	mov	r0, r9
10003790:	7048      	strb	r0, [r1, #1]
10003792:	7058      	strb	r0, [r3, #1]
10003794:	4641      	mov	r1, r8
10003796:	0020      	movs	r0, r4
10003798:	f7ff fe78 	bl	1000348c <ph_merge_nodes>
1000379c:	4659      	mov	r1, fp
1000379e:	4680      	mov	r8, r0
100037a0:	0020      	movs	r0, r4
100037a2:	f7ff fec5 	bl	10003530 <ph_merge_two_pass>
100037a6:	4641      	mov	r1, r8
100037a8:	0002      	movs	r2, r0
100037aa:	0020      	movs	r0, r4
100037ac:	f7ff fe6e 	bl	1000348c <ph_merge_nodes>
100037b0:	4680      	mov	r8, r0
100037b2:	e7ce      	b.n	10003752 <ph_remove_head+0x9a>

100037b4 <ph_remove_and_free_node>:
100037b4:	b570      	push	{r4, r5, r6, lr}
100037b6:	0004      	movs	r4, r0
100037b8:	2900      	cmp	r1, #0
100037ba:	d02c      	beq.n	10003816 <ph_remove_and_free_node+0x62>
100037bc:	7b43      	ldrb	r3, [r0, #13]
100037be:	428b      	cmp	r3, r1
100037c0:	d02e      	beq.n	10003820 <ph_remove_and_free_node+0x6c>
100037c2:	6805      	ldr	r5, [r0, #0]
100037c4:	0048      	lsls	r0, r1, #1
100037c6:	1840      	adds	r0, r0, r1
100037c8:	3803      	subs	r0, #3
100037ca:	1828      	adds	r0, r5, r0
100037cc:	7882      	ldrb	r2, [r0, #2]
100037ce:	2a00      	cmp	r2, #0
100037d0:	d021      	beq.n	10003816 <ph_remove_and_free_node+0x62>
100037d2:	0053      	lsls	r3, r2, #1
100037d4:	189b      	adds	r3, r3, r2
100037d6:	3b03      	subs	r3, #3
100037d8:	5cea      	ldrb	r2, [r5, r3]
100037da:	18ee      	adds	r6, r5, r3
100037dc:	428a      	cmp	r2, r1
100037de:	d102      	bne.n	100037e6 <ph_remove_and_free_node+0x32>
100037e0:	e01b      	b.n	1000381a <ph_remove_and_free_node+0x66>
100037e2:	2a00      	cmp	r2, #0
100037e4:	d008      	beq.n	100037f8 <ph_remove_and_free_node+0x44>
100037e6:	0053      	lsls	r3, r2, #1
100037e8:	189b      	adds	r3, r3, r2
100037ea:	3b03      	subs	r3, #3
100037ec:	18eb      	adds	r3, r5, r3
100037ee:	785a      	ldrb	r2, [r3, #1]
100037f0:	428a      	cmp	r2, r1
100037f2:	d1f6      	bne.n	100037e2 <ph_remove_and_free_node+0x2e>
100037f4:	7842      	ldrb	r2, [r0, #1]
100037f6:	705a      	strb	r2, [r3, #1]
100037f8:	2300      	movs	r3, #0
100037fa:	2201      	movs	r2, #1
100037fc:	7083      	strb	r3, [r0, #2]
100037fe:	7043      	strb	r3, [r0, #1]
10003800:	0020      	movs	r0, r4
10003802:	f7ff fedd 	bl	100035c0 <ph_remove_any_head>
10003806:	7b61      	ldrb	r1, [r4, #13]
10003808:	0002      	movs	r2, r0
1000380a:	0020      	movs	r0, r4
1000380c:	f7ff fe3e 	bl	1000348c <ph_merge_nodes>
10003810:	7360      	strb	r0, [r4, #13]
10003812:	2001      	movs	r0, #1
10003814:	e000      	b.n	10003818 <ph_remove_and_free_node+0x64>
10003816:	2000      	movs	r0, #0
10003818:	bd70      	pop	{r4, r5, r6, pc}
1000381a:	7843      	ldrb	r3, [r0, #1]
1000381c:	7033      	strb	r3, [r6, #0]
1000381e:	e7eb      	b.n	100037f8 <ph_remove_and_free_node+0x44>
10003820:	2201      	movs	r2, #1
10003822:	0019      	movs	r1, r3
10003824:	f7ff fecc 	bl	100035c0 <ph_remove_any_head>
10003828:	7360      	strb	r0, [r4, #13]
1000382a:	2001      	movs	r0, #1
1000382c:	e7f4      	b.n	10003818 <ph_remove_and_free_node+0x64>
1000382e:	46c0      	nop			; (mov r8, r8)

10003830 <runtime_init>:
10003830:	b5f8      	push	{r3, r4, r5, r6, r7, lr}
10003832:	4a30      	ldr	r2, [pc, #192]	; (100038f4 <runtime_init+0xc4>)
10003834:	4b30      	ldr	r3, [pc, #192]	; (100038f8 <runtime_init+0xc8>)
10003836:	4931      	ldr	r1, [pc, #196]	; (100038fc <runtime_init+0xcc>)
10003838:	601a      	str	r2, [r3, #0]
1000383a:	4a31      	ldr	r2, [pc, #196]	; (10003900 <runtime_init+0xd0>)
1000383c:	4b31      	ldr	r3, [pc, #196]	; (10003904 <runtime_init+0xd4>)
1000383e:	601a      	str	r2, [r3, #0]
10003840:	0014      	movs	r4, r2
10003842:	688b      	ldr	r3, [r1, #8]
10003844:	439c      	bics	r4, r3
10003846:	d1fb      	bne.n	10003840 <runtime_init+0x10>
10003848:	4d2f      	ldr	r5, [pc, #188]	; (10003908 <runtime_init+0xd8>)
1000384a:	4e30      	ldr	r6, [pc, #192]	; (1000390c <runtime_init+0xdc>)
1000384c:	42b5      	cmp	r5, r6
1000384e:	d208      	bcs.n	10003862 <runtime_init+0x32>
10003850:	3e01      	subs	r6, #1
10003852:	1b76      	subs	r6, r6, r5
10003854:	08b6      	lsrs	r6, r6, #2
10003856:	cd08      	ldmia	r5!, {r3}
10003858:	4798      	blx	r3
1000385a:	0023      	movs	r3, r4
1000385c:	3401      	adds	r4, #1
1000385e:	42b3      	cmp	r3, r6
10003860:	d1f9      	bne.n	10003856 <runtime_init+0x26>
10003862:	f000 f885 	bl	10003970 <clocks_init>
10003866:	4a2a      	ldr	r2, [pc, #168]	; (10003910 <runtime_init+0xe0>)
10003868:	4b26      	ldr	r3, [pc, #152]	; (10003904 <runtime_init+0xd4>)
1000386a:	601a      	str	r2, [r3, #0]
1000386c:	4a23      	ldr	r2, [pc, #140]	; (100038fc <runtime_init+0xcc>)
1000386e:	6893      	ldr	r3, [r2, #8]
10003870:	43db      	mvns	r3, r3
10003872:	01db      	lsls	r3, r3, #7
10003874:	09dd      	lsrs	r5, r3, #7
10003876:	2b00      	cmp	r3, #0
10003878:	d1f9      	bne.n	1000386e <runtime_init+0x3e>
1000387a:	2240      	movs	r2, #64	; 0x40
1000387c:	4b25      	ldr	r3, [pc, #148]	; (10003914 <runtime_init+0xe4>)
1000387e:	4c26      	ldr	r4, [pc, #152]	; (10003918 <runtime_init+0xe8>)
10003880:	4f26      	ldr	r7, [pc, #152]	; (1000391c <runtime_init+0xec>)
10003882:	679a      	str	r2, [r3, #120]	; 0x78
10003884:	675a      	str	r2, [r3, #116]	; 0x74
10003886:	671a      	str	r2, [r3, #112]	; 0x70
10003888:	66da      	str	r2, [r3, #108]	; 0x6c
1000388a:	42bc      	cmp	r4, r7
1000388c:	d215      	bcs.n	100038ba <runtime_init+0x8a>
1000388e:	3f01      	subs	r7, #1
10003890:	1b3f      	subs	r7, r7, r4
10003892:	2600      	movs	r6, #0
10003894:	08ff      	lsrs	r7, r7, #3
10003896:	e006      	b.n	100038a6 <runtime_init+0x76>
10003898:	f7ff fdea 	bl	10003470 <recursive_mutex_init>
1000389c:	3408      	adds	r4, #8
1000389e:	1c73      	adds	r3, r6, #1
100038a0:	42be      	cmp	r6, r7
100038a2:	d00a      	beq.n	100038ba <runtime_init+0x8a>
100038a4:	001e      	movs	r6, r3
100038a6:	7963      	ldrb	r3, [r4, #5]
100038a8:	0020      	movs	r0, r4
100038aa:	2b00      	cmp	r3, #0
100038ac:	d1f4      	bne.n	10003898 <runtime_init+0x68>
100038ae:	f7ff fdd1 	bl	10003454 <mutex_init>
100038b2:	3408      	adds	r4, #8
100038b4:	1c73      	adds	r3, r6, #1
100038b6:	42be      	cmp	r6, r7
100038b8:	d1f4      	bne.n	100038a4 <runtime_init+0x74>
100038ba:	4e19      	ldr	r6, [pc, #100]	; (10003920 <runtime_init+0xf0>)
100038bc:	4c19      	ldr	r4, [pc, #100]	; (10003924 <runtime_init+0xf4>)
100038be:	22c0      	movs	r2, #192	; 0xc0
100038c0:	68a1      	ldr	r1, [r4, #8]
100038c2:	0030      	movs	r0, r6
100038c4:	f000 ff5a 	bl	1000477c <__wrap___aeabi_memcpy>
100038c8:	60a6      	str	r6, [r4, #8]
100038ca:	f7fe ffe9 	bl	100028a0 <spin_locks_reset>
100038ce:	f000 fb37 	bl	10003f40 <irq_init_priorities>
100038d2:	f7ff faa1 	bl	10002e18 <alarm_pool_init_default>
100038d6:	4c14      	ldr	r4, [pc, #80]	; (10003928 <runtime_init+0xf8>)
100038d8:	4e14      	ldr	r6, [pc, #80]	; (1000392c <runtime_init+0xfc>)
100038da:	42b4      	cmp	r4, r6
100038dc:	d208      	bcs.n	100038f0 <runtime_init+0xc0>
100038de:	3e01      	subs	r6, #1
100038e0:	1b36      	subs	r6, r6, r4
100038e2:	08b6      	lsrs	r6, r6, #2
100038e4:	cc08      	ldmia	r4!, {r3}
100038e6:	4798      	blx	r3
100038e8:	002b      	movs	r3, r5
100038ea:	3501      	adds	r5, #1
100038ec:	429e      	cmp	r6, r3
100038ee:	d1f9      	bne.n	100038e4 <runtime_init+0xb4>
100038f0:	bdf8      	pop	{r3, r4, r5, r6, r7, pc}
100038f2:	46c0      	nop			; (mov r8, r8)
100038f4:	fefbcdbf 	.word	0xfefbcdbf
100038f8:	4000e000 	.word	0x4000e000
100038fc:	4000c000 	.word	0x4000c000
10003900:	003c7ffe 	.word	0x003c7ffe
10003904:	4000f000 	.word	0x4000f000
10003908:	200009ec 	.word	0x200009ec
1000390c:	200009fc 	.word	0x200009fc
10003910:	01ffffff 	.word	0x01ffffff
10003914:	4001f000 	.word	0x4001f000
10003918:	200009dc 	.word	0x200009dc
1000391c:	200009ec 	.word	0x200009ec
10003920:	20000000 	.word	0x20000000
10003924:	e000ed00 	.word	0xe000ed00
10003928:	200009fc 	.word	0x200009fc
1000392c:	20000a00 	.word	0x20000a00

10003930 <exit>:
10003930:	be00      	bkpt	0x0000
10003932:	e7fd      	b.n	10003930 <exit>

10003934 <panic>:
10003934:	b40f      	push	{r0, r1, r2, r3}
10003936:	b500      	push	{lr}
10003938:	4808      	ldr	r0, [pc, #32]	; (1000395c <panic+0x28>)
1000393a:	b083      	sub	sp, #12
1000393c:	f001 f800 	bl	10004940 <__wrap_puts>
10003940:	9b04      	ldr	r3, [sp, #16]
10003942:	2b00      	cmp	r3, #0
10003944:	d007      	beq.n	10003956 <panic+0x22>
10003946:	a905      	add	r1, sp, #20
10003948:	0018      	movs	r0, r3
1000394a:	9101      	str	r1, [sp, #4]
1000394c:	f000 fb8c 	bl	10004068 <weak_raw_vprintf>
10003950:	4803      	ldr	r0, [pc, #12]	; (10003960 <panic+0x2c>)
10003952:	f000 fff5 	bl	10004940 <__wrap_puts>
10003956:	be00      	bkpt	0x0000
10003958:	e7fd      	b.n	10003956 <panic+0x22>
1000395a:	46c0      	nop			; (mov r8, r8)
1000395c:	10008770 	.word	0x10008770
10003960:	10008780 	.word	0x10008780

10003964 <hard_assertion_failure>:
10003964:	b510      	push	{r4, lr}
10003966:	4801      	ldr	r0, [pc, #4]	; (1000396c <hard_assertion_failure+0x8>)
10003968:	f7ff ffe4 	bl	10003934 <panic>
1000396c:	10008784 	.word	0x10008784

10003970 <clocks_init>:
10003970:	b530      	push	{r4, r5, lr}
10003972:	200c      	movs	r0, #12
10003974:	b083      	sub	sp, #12
10003976:	f000 fb53 	bl	10004020 <watchdog_start_tick>
1000397a:	f7fe ff89 	bl	10002890 <running_on_fpga>
1000397e:	2800      	cmp	r0, #0
10003980:	d00e      	beq.n	100039a0 <clocks_init+0x30>
10003982:	4b94      	ldr	r3, [pc, #592]	; (10003bd4 <clocks_init+0x264>)
10003984:	4a94      	ldr	r2, [pc, #592]	; (10003bd8 <clocks_init+0x268>)
10003986:	601a      	str	r2, [r3, #0]
10003988:	605a      	str	r2, [r3, #4]
1000398a:	609a      	str	r2, [r3, #8]
1000398c:	60da      	str	r2, [r3, #12]
1000398e:	611a      	str	r2, [r3, #16]
10003990:	615a      	str	r2, [r3, #20]
10003992:	619a      	str	r2, [r3, #24]
10003994:	61da      	str	r2, [r3, #28]
10003996:	621a      	str	r2, [r3, #32]
10003998:	4a90      	ldr	r2, [pc, #576]	; (10003bdc <clocks_init+0x26c>)
1000399a:	625a      	str	r2, [r3, #36]	; 0x24
1000399c:	b003      	add	sp, #12
1000399e:	bd30      	pop	{r4, r5, pc}
100039a0:	4c8f      	ldr	r4, [pc, #572]	; (10003be0 <clocks_init+0x270>)
100039a2:	67a0      	str	r0, [r4, #120]	; 0x78
100039a4:	f000 fb44 	bl	10004030 <xosc_init>
100039a8:	2201      	movs	r2, #1
100039aa:	4b8e      	ldr	r3, [pc, #568]	; (10003be4 <clocks_init+0x274>)
100039ac:	601a      	str	r2, [r3, #0]
100039ae:	6c63      	ldr	r3, [r4, #68]	; 0x44
100039b0:	2b01      	cmp	r3, #1
100039b2:	d1fc      	bne.n	100039ae <clocks_init+0x3e>
100039b4:	2203      	movs	r2, #3
100039b6:	4b8c      	ldr	r3, [pc, #560]	; (10003be8 <clocks_init+0x278>)
100039b8:	601a      	str	r2, [r3, #0]
100039ba:	4a89      	ldr	r2, [pc, #548]	; (10003be0 <clocks_init+0x270>)
100039bc:	6b93      	ldr	r3, [r2, #56]	; 0x38
100039be:	2b01      	cmp	r3, #1
100039c0:	d1fc      	bne.n	100039bc <clocks_init+0x4c>
100039c2:	2402      	movs	r4, #2
100039c4:	2101      	movs	r1, #1
100039c6:	4a89      	ldr	r2, [pc, #548]	; (10003bec <clocks_init+0x27c>)
100039c8:	4889      	ldr	r0, [pc, #548]	; (10003bf0 <clocks_init+0x280>)
100039ca:	3305      	adds	r3, #5
100039cc:	9400      	str	r4, [sp, #0]
100039ce:	f000 fad3 	bl	10003f78 <pll_init>
100039d2:	2305      	movs	r3, #5
100039d4:	4a87      	ldr	r2, [pc, #540]	; (10003bf4 <clocks_init+0x284>)
100039d6:	2101      	movs	r1, #1
100039d8:	4887      	ldr	r0, [pc, #540]	; (10003bf8 <clocks_init+0x288>)
100039da:	9400      	str	r4, [sp, #0]
100039dc:	f000 facc 	bl	10003f78 <pll_init>
100039e0:	4b86      	ldr	r3, [pc, #536]	; (10003bfc <clocks_init+0x28c>)
100039e2:	685a      	ldr	r2, [r3, #4]
100039e4:	2aff      	cmp	r2, #255	; 0xff
100039e6:	d802      	bhi.n	100039ee <clocks_init+0x7e>
100039e8:	2280      	movs	r2, #128	; 0x80
100039ea:	0052      	lsls	r2, r2, #1
100039ec:	605a      	str	r2, [r3, #4]
100039ee:	2280      	movs	r2, #128	; 0x80
100039f0:	4c78      	ldr	r4, [pc, #480]	; (10003bd4 <clocks_init+0x264>)
100039f2:	4b7d      	ldr	r3, [pc, #500]	; (10003be8 <clocks_init+0x278>)
100039f4:	6921      	ldr	r1, [r4, #16]
100039f6:	0112      	lsls	r2, r2, #4
100039f8:	4d80      	ldr	r5, [pc, #512]	; (10003bfc <clocks_init+0x28c>)
100039fa:	601a      	str	r2, [r3, #0]
100039fc:	2900      	cmp	r1, #0
100039fe:	d005      	beq.n	10003a0c <clocks_init+0x9c>
10003a00:	6960      	ldr	r0, [r4, #20]
10003a02:	f000 fbb7 	bl	10004174 <__wrap___aeabi_uidiv>
10003a06:	3001      	adds	r0, #1
10003a08:	3801      	subs	r0, #1
10003a0a:	d1fd      	bne.n	10003a08 <clocks_init+0x98>
10003a0c:	21e0      	movs	r1, #224	; 0xe0
10003a0e:	4b7b      	ldr	r3, [pc, #492]	; (10003bfc <clocks_init+0x28c>)
10003a10:	2002      	movs	r0, #2
10003a12:	681a      	ldr	r2, [r3, #0]
10003a14:	4011      	ands	r1, r2
10003a16:	2280      	movs	r2, #128	; 0x80
10003a18:	0152      	lsls	r2, r2, #5
10003a1a:	432a      	orrs	r2, r5
10003a1c:	6011      	str	r1, [r2, #0]
10003a1e:	6819      	ldr	r1, [r3, #0]
10003a20:	4048      	eors	r0, r1
10003a22:	2103      	movs	r1, #3
10003a24:	4001      	ands	r1, r0
10003a26:	6011      	str	r1, [r2, #0]
10003a28:	2104      	movs	r1, #4
10003a2a:	689a      	ldr	r2, [r3, #8]
10003a2c:	4211      	tst	r1, r2
10003a2e:	d0fc      	beq.n	10003a2a <clocks_init+0xba>
10003a30:	2280      	movs	r2, #128	; 0x80
10003a32:	2180      	movs	r1, #128	; 0x80
10003a34:	0192      	lsls	r2, r2, #6
10003a36:	432a      	orrs	r2, r5
10003a38:	0109      	lsls	r1, r1, #4
10003a3a:	6011      	str	r1, [r2, #0]
10003a3c:	2280      	movs	r2, #128	; 0x80
10003a3e:	0052      	lsls	r2, r2, #1
10003a40:	605a      	str	r2, [r3, #4]
10003a42:	4b6f      	ldr	r3, [pc, #444]	; (10003c00 <clocks_init+0x290>)
10003a44:	6123      	str	r3, [r4, #16]
10003a46:	4b6f      	ldr	r3, [pc, #444]	; (10003c04 <clocks_init+0x294>)
10003a48:	6859      	ldr	r1, [r3, #4]
10003a4a:	29ff      	cmp	r1, #255	; 0xff
10003a4c:	d800      	bhi.n	10003a50 <clocks_init+0xe0>
10003a4e:	605a      	str	r2, [r3, #4]
10003a50:	2103      	movs	r1, #3
10003a52:	4a64      	ldr	r2, [pc, #400]	; (10003be4 <clocks_init+0x274>)
10003a54:	4b6b      	ldr	r3, [pc, #428]	; (10003c04 <clocks_init+0x294>)
10003a56:	6011      	str	r1, [r2, #0]
10003a58:	3902      	subs	r1, #2
10003a5a:	689a      	ldr	r2, [r3, #8]
10003a5c:	4211      	tst	r1, r2
10003a5e:	d0fc      	beq.n	10003a5a <clocks_init+0xea>
10003a60:	20e0      	movs	r0, #224	; 0xe0
10003a62:	681a      	ldr	r2, [r3, #0]
10003a64:	4010      	ands	r0, r2
10003a66:	2280      	movs	r2, #128	; 0x80
10003a68:	0152      	lsls	r2, r2, #5
10003a6a:	431a      	orrs	r2, r3
10003a6c:	6010      	str	r0, [r2, #0]
10003a6e:	6818      	ldr	r0, [r3, #0]
10003a70:	4048      	eors	r0, r1
10003a72:	2103      	movs	r1, #3
10003a74:	4001      	ands	r1, r0
10003a76:	2002      	movs	r0, #2
10003a78:	6011      	str	r1, [r2, #0]
10003a7a:	4962      	ldr	r1, [pc, #392]	; (10003c04 <clocks_init+0x294>)
10003a7c:	688a      	ldr	r2, [r1, #8]
10003a7e:	4210      	tst	r0, r2
10003a80:	d0fc      	beq.n	10003a7c <clocks_init+0x10c>
10003a82:	2280      	movs	r2, #128	; 0x80
10003a84:	0192      	lsls	r2, r2, #6
10003a86:	4313      	orrs	r3, r2
10003a88:	2280      	movs	r2, #128	; 0x80
10003a8a:	0112      	lsls	r2, r2, #4
10003a8c:	601a      	str	r2, [r3, #0]
10003a8e:	2280      	movs	r2, #128	; 0x80
10003a90:	4b5d      	ldr	r3, [pc, #372]	; (10003c08 <clocks_init+0x298>)
10003a92:	0052      	lsls	r2, r2, #1
10003a94:	604a      	str	r2, [r1, #4]
10003a96:	6163      	str	r3, [r4, #20]
10003a98:	4b5c      	ldr	r3, [pc, #368]	; (10003c0c <clocks_init+0x29c>)
10003a9a:	6859      	ldr	r1, [r3, #4]
10003a9c:	29ff      	cmp	r1, #255	; 0xff
10003a9e:	d800      	bhi.n	10003aa2 <clocks_init+0x132>
10003aa0:	605a      	str	r2, [r3, #4]
10003aa2:	2280      	movs	r2, #128	; 0x80
10003aa4:	4b5a      	ldr	r3, [pc, #360]	; (10003c10 <clocks_init+0x2a0>)
10003aa6:	69e1      	ldr	r1, [r4, #28]
10003aa8:	0112      	lsls	r2, r2, #4
10003aaa:	4d58      	ldr	r5, [pc, #352]	; (10003c0c <clocks_init+0x29c>)
10003aac:	601a      	str	r2, [r3, #0]
10003aae:	2900      	cmp	r1, #0
10003ab0:	d005      	beq.n	10003abe <clocks_init+0x14e>
10003ab2:	6960      	ldr	r0, [r4, #20]
10003ab4:	f000 fb5e 	bl	10004174 <__wrap___aeabi_uidiv>
10003ab8:	3001      	adds	r0, #1
10003aba:	3801      	subs	r0, #1
10003abc:	d1fd      	bne.n	10003aba <clocks_init+0x14a>
10003abe:	22e0      	movs	r2, #224	; 0xe0
10003ac0:	4952      	ldr	r1, [pc, #328]	; (10003c0c <clocks_init+0x29c>)
10003ac2:	680b      	ldr	r3, [r1, #0]
10003ac4:	401a      	ands	r2, r3
10003ac6:	2380      	movs	r3, #128	; 0x80
10003ac8:	015b      	lsls	r3, r3, #5
10003aca:	432b      	orrs	r3, r5
10003acc:	601a      	str	r2, [r3, #0]
10003ace:	2380      	movs	r3, #128	; 0x80
10003ad0:	2280      	movs	r2, #128	; 0x80
10003ad2:	019b      	lsls	r3, r3, #6
10003ad4:	432b      	orrs	r3, r5
10003ad6:	0112      	lsls	r2, r2, #4
10003ad8:	601a      	str	r2, [r3, #0]
10003ada:	2280      	movs	r2, #128	; 0x80
10003adc:	4b3e      	ldr	r3, [pc, #248]	; (10003bd8 <clocks_init+0x268>)
10003ade:	0052      	lsls	r2, r2, #1
10003ae0:	604a      	str	r2, [r1, #4]
10003ae2:	61e3      	str	r3, [r4, #28]
10003ae4:	4b4b      	ldr	r3, [pc, #300]	; (10003c14 <clocks_init+0x2a4>)
10003ae6:	6859      	ldr	r1, [r3, #4]
10003ae8:	29ff      	cmp	r1, #255	; 0xff
10003aea:	d800      	bhi.n	10003aee <clocks_init+0x17e>
10003aec:	605a      	str	r2, [r3, #4]
10003aee:	2280      	movs	r2, #128	; 0x80
10003af0:	4b49      	ldr	r3, [pc, #292]	; (10003c18 <clocks_init+0x2a8>)
10003af2:	6a21      	ldr	r1, [r4, #32]
10003af4:	0112      	lsls	r2, r2, #4
10003af6:	4d47      	ldr	r5, [pc, #284]	; (10003c14 <clocks_init+0x2a4>)
10003af8:	601a      	str	r2, [r3, #0]
10003afa:	2900      	cmp	r1, #0
10003afc:	d005      	beq.n	10003b0a <clocks_init+0x19a>
10003afe:	6960      	ldr	r0, [r4, #20]
10003b00:	f000 fb38 	bl	10004174 <__wrap___aeabi_uidiv>
10003b04:	3001      	adds	r0, #1
10003b06:	3801      	subs	r0, #1
10003b08:	d1fd      	bne.n	10003b06 <clocks_init+0x196>
10003b0a:	22e0      	movs	r2, #224	; 0xe0
10003b0c:	4941      	ldr	r1, [pc, #260]	; (10003c14 <clocks_init+0x2a4>)
10003b0e:	680b      	ldr	r3, [r1, #0]
10003b10:	401a      	ands	r2, r3
10003b12:	2380      	movs	r3, #128	; 0x80
10003b14:	015b      	lsls	r3, r3, #5
10003b16:	432b      	orrs	r3, r5
10003b18:	601a      	str	r2, [r3, #0]
10003b1a:	2380      	movs	r3, #128	; 0x80
10003b1c:	2280      	movs	r2, #128	; 0x80
10003b1e:	019b      	lsls	r3, r3, #6
10003b20:	432b      	orrs	r3, r5
10003b22:	0112      	lsls	r2, r2, #4
10003b24:	601a      	str	r2, [r3, #0]
10003b26:	2380      	movs	r3, #128	; 0x80
10003b28:	2280      	movs	r2, #128	; 0x80
10003b2a:	005b      	lsls	r3, r3, #1
10003b2c:	604b      	str	r3, [r1, #4]
10003b2e:	4b2a      	ldr	r3, [pc, #168]	; (10003bd8 <clocks_init+0x268>)
10003b30:	02d2      	lsls	r2, r2, #11
10003b32:	6223      	str	r3, [r4, #32]
10003b34:	4b39      	ldr	r3, [pc, #228]	; (10003c1c <clocks_init+0x2ac>)
10003b36:	6859      	ldr	r1, [r3, #4]
10003b38:	4291      	cmp	r1, r2
10003b3a:	d200      	bcs.n	10003b3e <clocks_init+0x1ce>
10003b3c:	605a      	str	r2, [r3, #4]
10003b3e:	2280      	movs	r2, #128	; 0x80
10003b40:	4b37      	ldr	r3, [pc, #220]	; (10003c20 <clocks_init+0x2b0>)
10003b42:	6a61      	ldr	r1, [r4, #36]	; 0x24
10003b44:	0112      	lsls	r2, r2, #4
10003b46:	4d35      	ldr	r5, [pc, #212]	; (10003c1c <clocks_init+0x2ac>)
10003b48:	601a      	str	r2, [r3, #0]
10003b4a:	2900      	cmp	r1, #0
10003b4c:	d005      	beq.n	10003b5a <clocks_init+0x1ea>
10003b4e:	6960      	ldr	r0, [r4, #20]
10003b50:	f000 fb10 	bl	10004174 <__wrap___aeabi_uidiv>
10003b54:	3001      	adds	r0, #1
10003b56:	3801      	subs	r0, #1
10003b58:	d1fd      	bne.n	10003b56 <clocks_init+0x1e6>
10003b5a:	22e0      	movs	r2, #224	; 0xe0
10003b5c:	492f      	ldr	r1, [pc, #188]	; (10003c1c <clocks_init+0x2ac>)
10003b5e:	680b      	ldr	r3, [r1, #0]
10003b60:	401a      	ands	r2, r3
10003b62:	2380      	movs	r3, #128	; 0x80
10003b64:	015b      	lsls	r3, r3, #5
10003b66:	432b      	orrs	r3, r5
10003b68:	601a      	str	r2, [r3, #0]
10003b6a:	2380      	movs	r3, #128	; 0x80
10003b6c:	2280      	movs	r2, #128	; 0x80
10003b6e:	019b      	lsls	r3, r3, #6
10003b70:	432b      	orrs	r3, r5
10003b72:	0112      	lsls	r2, r2, #4
10003b74:	601a      	str	r2, [r3, #0]
10003b76:	2380      	movs	r3, #128	; 0x80
10003b78:	02db      	lsls	r3, r3, #11
10003b7a:	604b      	str	r3, [r1, #4]
10003b7c:	4b17      	ldr	r3, [pc, #92]	; (10003bdc <clocks_init+0x26c>)
10003b7e:	6263      	str	r3, [r4, #36]	; 0x24
10003b80:	4b28      	ldr	r3, [pc, #160]	; (10003c24 <clocks_init+0x2b4>)
10003b82:	685a      	ldr	r2, [r3, #4]
10003b84:	2aff      	cmp	r2, #255	; 0xff
10003b86:	d802      	bhi.n	10003b8e <clocks_init+0x21e>
10003b88:	2280      	movs	r2, #128	; 0x80
10003b8a:	0052      	lsls	r2, r2, #1
10003b8c:	605a      	str	r2, [r3, #4]
10003b8e:	2280      	movs	r2, #128	; 0x80
10003b90:	4b25      	ldr	r3, [pc, #148]	; (10003c28 <clocks_init+0x2b8>)
10003b92:	69a1      	ldr	r1, [r4, #24]
10003b94:	0112      	lsls	r2, r2, #4
10003b96:	4d23      	ldr	r5, [pc, #140]	; (10003c24 <clocks_init+0x2b4>)
10003b98:	601a      	str	r2, [r3, #0]
10003b9a:	2900      	cmp	r1, #0
10003b9c:	d005      	beq.n	10003baa <clocks_init+0x23a>
10003b9e:	6960      	ldr	r0, [r4, #20]
10003ba0:	f000 fae8 	bl	10004174 <__wrap___aeabi_uidiv>
10003ba4:	3001      	adds	r0, #1
10003ba6:	3801      	subs	r0, #1
10003ba8:	d1fd      	bne.n	10003ba6 <clocks_init+0x236>
10003baa:	22e0      	movs	r2, #224	; 0xe0
10003bac:	491d      	ldr	r1, [pc, #116]	; (10003c24 <clocks_init+0x2b4>)
10003bae:	680b      	ldr	r3, [r1, #0]
10003bb0:	401a      	ands	r2, r3
10003bb2:	2380      	movs	r3, #128	; 0x80
10003bb4:	015b      	lsls	r3, r3, #5
10003bb6:	432b      	orrs	r3, r5
10003bb8:	601a      	str	r2, [r3, #0]
10003bba:	2380      	movs	r3, #128	; 0x80
10003bbc:	2280      	movs	r2, #128	; 0x80
10003bbe:	019b      	lsls	r3, r3, #6
10003bc0:	432b      	orrs	r3, r5
10003bc2:	0112      	lsls	r2, r2, #4
10003bc4:	601a      	str	r2, [r3, #0]
10003bc6:	2380      	movs	r3, #128	; 0x80
10003bc8:	005b      	lsls	r3, r3, #1
10003bca:	604b      	str	r3, [r1, #4]
10003bcc:	4b0e      	ldr	r3, [pc, #56]	; (10003c08 <clocks_init+0x298>)
10003bce:	61a3      	str	r3, [r4, #24]
10003bd0:	e6e4      	b.n	1000399c <clocks_init+0x2c>
10003bd2:	46c0      	nop			; (mov r8, r8)
10003bd4:	20027b10 	.word	0x20027b10
10003bd8:	02dc6c00 	.word	0x02dc6c00
10003bdc:	0000b71b 	.word	0x0000b71b
10003be0:	40008000 	.word	0x40008000
10003be4:	4000b03c 	.word	0x4000b03c
10003be8:	4000b030 	.word	0x4000b030
10003bec:	59682f00 	.word	0x59682f00
10003bf0:	40028000 	.word	0x40028000
10003bf4:	1c9c3800 	.word	0x1c9c3800
10003bf8:	4002c000 	.word	0x4002c000
10003bfc:	40008030 	.word	0x40008030
10003c00:	00b71b00 	.word	0x00b71b00
10003c04:	4000803c 	.word	0x4000803c
10003c08:	07735940 	.word	0x07735940
10003c0c:	40008054 	.word	0x40008054
10003c10:	4000b054 	.word	0x4000b054
10003c14:	40008060 	.word	0x40008060
10003c18:	4000b060 	.word	0x4000b060
10003c1c:	4000806c 	.word	0x4000806c
10003c20:	4000b06c 	.word	0x4000b06c
10003c24:	40008048 	.word	0x40008048
10003c28:	4000b048 	.word	0x4000b048

10003c2c <clock_get_hz>:
10003c2c:	4b01      	ldr	r3, [pc, #4]	; (10003c34 <clock_get_hz+0x8>)
10003c2e:	0080      	lsls	r0, r0, #2
10003c30:	58c0      	ldr	r0, [r0, r3]
10003c32:	4770      	bx	lr
10003c34:	20027b10 	.word	0x20027b10

10003c38 <irq_set_enabled>:
10003c38:	2301      	movs	r3, #1
10003c3a:	4083      	lsls	r3, r0
10003c3c:	2900      	cmp	r1, #0
10003c3e:	d004      	beq.n	10003c4a <irq_set_enabled+0x12>
10003c40:	4a03      	ldr	r2, [pc, #12]	; (10003c50 <irq_set_enabled+0x18>)
10003c42:	6013      	str	r3, [r2, #0]
10003c44:	4a03      	ldr	r2, [pc, #12]	; (10003c54 <irq_set_enabled+0x1c>)
10003c46:	6013      	str	r3, [r2, #0]
10003c48:	4770      	bx	lr
10003c4a:	4a03      	ldr	r2, [pc, #12]	; (10003c58 <irq_set_enabled+0x20>)
10003c4c:	6013      	str	r3, [r2, #0]
10003c4e:	e7fb      	b.n	10003c48 <irq_set_enabled+0x10>
10003c50:	e000e280 	.word	0xe000e280
10003c54:	e000e100 	.word	0xe000e100
10003c58:	e000e180 	.word	0xe000e180

10003c5c <irq_is_enabled>:
10003c5c:	2201      	movs	r2, #1
10003c5e:	4082      	lsls	r2, r0
10003c60:	4b03      	ldr	r3, [pc, #12]	; (10003c70 <irq_is_enabled+0x14>)
10003c62:	681b      	ldr	r3, [r3, #0]
10003c64:	4013      	ands	r3, r2
10003c66:	1e5a      	subs	r2, r3, #1
10003c68:	4193      	sbcs	r3, r2
10003c6a:	b2d8      	uxtb	r0, r3
10003c6c:	4770      	bx	lr
10003c6e:	46c0      	nop			; (mov r8, r8)
10003c70:	e000e100 	.word	0xe000e100

10003c74 <irq_get_vtable_handler>:
10003c74:	4b02      	ldr	r3, [pc, #8]	; (10003c80 <irq_get_vtable_handler+0xc>)
10003c76:	3010      	adds	r0, #16
10003c78:	689b      	ldr	r3, [r3, #8]
10003c7a:	0080      	lsls	r0, r0, #2
10003c7c:	58c0      	ldr	r0, [r0, r3]
10003c7e:	4770      	bx	lr
10003c80:	e000ed00 	.word	0xe000ed00

10003c84 <irq_set_exclusive_handler>:
10003c84:	b570      	push	{r4, r5, r6, lr}
10003c86:	000d      	movs	r5, r1
10003c88:	f3ef 8610 	mrs	r6, PRIMASK
10003c8c:	b672      	cpsid	i
10003c8e:	4a0f      	ldr	r2, [pc, #60]	; (10003ccc <irq_set_exclusive_handler+0x48>)
10003c90:	6813      	ldr	r3, [r2, #0]
10003c92:	2b00      	cmp	r3, #0
10003c94:	d0fc      	beq.n	10003c90 <irq_set_exclusive_handler+0xc>
10003c96:	f3bf 8f5f 	dmb	sy
10003c9a:	4b0d      	ldr	r3, [pc, #52]	; (10003cd0 <irq_set_exclusive_handler+0x4c>)
10003c9c:	3010      	adds	r0, #16
10003c9e:	689b      	ldr	r3, [r3, #8]
10003ca0:	0084      	lsls	r4, r0, #2
10003ca2:	591b      	ldr	r3, [r3, r4]
10003ca4:	4a0b      	ldr	r2, [pc, #44]	; (10003cd4 <irq_set_exclusive_handler+0x50>)
10003ca6:	4293      	cmp	r3, r2
10003ca8:	d003      	beq.n	10003cb2 <irq_set_exclusive_handler+0x2e>
10003caa:	429d      	cmp	r5, r3
10003cac:	d001      	beq.n	10003cb2 <irq_set_exclusive_handler+0x2e>
10003cae:	f7ff fe59 	bl	10003964 <hard_assertion_failure>
10003cb2:	4b07      	ldr	r3, [pc, #28]	; (10003cd0 <irq_set_exclusive_handler+0x4c>)
10003cb4:	689b      	ldr	r3, [r3, #8]
10003cb6:	511d      	str	r5, [r3, r4]
10003cb8:	f3bf 8f5f 	dmb	sy
10003cbc:	f3bf 8f5f 	dmb	sy
10003cc0:	2200      	movs	r2, #0
10003cc2:	4b02      	ldr	r3, [pc, #8]	; (10003ccc <irq_set_exclusive_handler+0x48>)
10003cc4:	601a      	str	r2, [r3, #0]
10003cc6:	f386 8810 	msr	PRIMASK, r6
10003cca:	bd70      	pop	{r4, r5, r6, pc}
10003ccc:	d0000124 	.word	0xd0000124
10003cd0:	e000ed00 	.word	0xe000ed00
10003cd4:	100001cd 	.word	0x100001cd

10003cd8 <irq_remove_handler>:
10003cd8:	b5f0      	push	{r4, r5, r6, r7, lr}
10003cda:	46de      	mov	lr, fp
10003cdc:	4657      	mov	r7, sl
10003cde:	464e      	mov	r6, r9
10003ce0:	4645      	mov	r5, r8
10003ce2:	b5e0      	push	{r5, r6, r7, lr}
10003ce4:	000c      	movs	r4, r1
10003ce6:	b083      	sub	sp, #12
10003ce8:	f3ef 8a10 	mrs	sl, PRIMASK
10003cec:	b672      	cpsid	i
10003cee:	4a5a      	ldr	r2, [pc, #360]	; (10003e58 <irq_remove_handler+0x180>)
10003cf0:	6813      	ldr	r3, [r2, #0]
10003cf2:	2b00      	cmp	r3, #0
10003cf4:	d0fc      	beq.n	10003cf0 <irq_remove_handler+0x18>
10003cf6:	f3bf 8f5f 	dmb	sy
10003cfa:	2210      	movs	r2, #16
10003cfc:	4691      	mov	r9, r2
10003cfe:	4481      	add	r9, r0
10003d00:	464a      	mov	r2, r9
10003d02:	4b56      	ldr	r3, [pc, #344]	; (10003e5c <irq_remove_handler+0x184>)
10003d04:	0096      	lsls	r6, r2, #2
10003d06:	689b      	ldr	r3, [r3, #8]
10003d08:	599d      	ldr	r5, [r3, r6]
10003d0a:	4b55      	ldr	r3, [pc, #340]	; (10003e60 <irq_remove_handler+0x188>)
10003d0c:	4698      	mov	r8, r3
10003d0e:	429d      	cmp	r5, r3
10003d10:	d005      	beq.n	10003d1e <irq_remove_handler+0x46>
10003d12:	42a5      	cmp	r5, r4
10003d14:	d016      	beq.n	10003d44 <irq_remove_handler+0x6c>
10003d16:	4f53      	ldr	r7, [pc, #332]	; (10003e64 <irq_remove_handler+0x18c>)
10003d18:	1beb      	subs	r3, r5, r7
10003d1a:	2b2f      	cmp	r3, #47	; 0x2f
10003d1c:	d914      	bls.n	10003d48 <irq_remove_handler+0x70>
10003d1e:	4b4f      	ldr	r3, [pc, #316]	; (10003e5c <irq_remove_handler+0x184>)
10003d20:	689b      	ldr	r3, [r3, #8]
10003d22:	519d      	str	r5, [r3, r6]
10003d24:	f3bf 8f5f 	dmb	sy
10003d28:	f3bf 8f5f 	dmb	sy
10003d2c:	2200      	movs	r2, #0
10003d2e:	4b4a      	ldr	r3, [pc, #296]	; (10003e58 <irq_remove_handler+0x180>)
10003d30:	601a      	str	r2, [r3, #0]
10003d32:	f38a 8810 	msr	PRIMASK, sl
10003d36:	b003      	add	sp, #12
10003d38:	bcf0      	pop	{r4, r5, r6, r7}
10003d3a:	46bb      	mov	fp, r7
10003d3c:	46b2      	mov	sl, r6
10003d3e:	46a9      	mov	r9, r5
10003d40:	46a0      	mov	r8, r4
10003d42:	bdf0      	pop	{r4, r5, r6, r7, pc}
10003d44:	001d      	movs	r5, r3
10003d46:	e7ea      	b.n	10003d1e <irq_remove_handler+0x46>
10003d48:	2301      	movs	r3, #1
10003d4a:	4083      	lsls	r3, r0
10003d4c:	469b      	mov	fp, r3
10003d4e:	465a      	mov	r2, fp
10003d50:	4b45      	ldr	r3, [pc, #276]	; (10003e68 <irq_remove_handler+0x190>)
10003d52:	681b      	ldr	r3, [r3, #0]
10003d54:	401a      	ands	r2, r3
10003d56:	9200      	str	r2, [sp, #0]
10003d58:	465a      	mov	r2, fp
10003d5a:	4b44      	ldr	r3, [pc, #272]	; (10003e6c <irq_remove_handler+0x194>)
10003d5c:	601a      	str	r2, [r3, #0]
10003d5e:	f3bf 8f5f 	dmb	sy
10003d62:	f7fc fa80 	bl	10000266 <__get_current_exception>
10003d66:	9001      	str	r0, [sp, #4]
10003d68:	2800      	cmp	r0, #0
10003d6a:	d003      	beq.n	10003d74 <irq_remove_handler+0x9c>
10003d6c:	4581      	cmp	r9, r0
10003d6e:	d001      	beq.n	10003d74 <irq_remove_handler+0x9c>
10003d70:	f7ff fdf8 	bl	10003964 <hard_assertion_failure>
10003d74:	2301      	movs	r3, #1
10003d76:	002a      	movs	r2, r5
10003d78:	439a      	bics	r2, r3
10003d7a:	0013      	movs	r3, r2
10003d7c:	1bdb      	subs	r3, r3, r7
10003d7e:	415b      	adcs	r3, r3
10003d80:	4941      	ldr	r1, [pc, #260]	; (10003e88 <irq_remove_handler+0x1b0>)
10003d82:	4359      	muls	r1, r3
10003d84:	0d09      	lsrs	r1, r1, #20
10003d86:	6893      	ldr	r3, [r2, #8]
10003d88:	429c      	cmp	r4, r3
10003d8a:	d108      	bne.n	10003d9e <irq_remove_handler+0xc6>
10003d8c:	e05a      	b.n	10003e44 <irq_remove_handler+0x16c>
10003d8e:	0043      	lsls	r3, r0, #1
10003d90:	181b      	adds	r3, r3, r0
10003d92:	009b      	lsls	r3, r3, #2
10003d94:	18fb      	adds	r3, r7, r3
10003d96:	6898      	ldr	r0, [r3, #8]
10003d98:	42a0      	cmp	r0, r4
10003d9a:	d011      	beq.n	10003dc0 <irq_remove_handler+0xe8>
10003d9c:	001a      	movs	r2, r3
10003d9e:	2006      	movs	r0, #6
10003da0:	5610      	ldrsb	r0, [r2, r0]
10003da2:	2800      	cmp	r0, #0
10003da4:	daf3      	bge.n	10003d8e <irq_remove_handler+0xb6>
10003da6:	9b00      	ldr	r3, [sp, #0]
10003da8:	2b00      	cmp	r3, #0
10003daa:	d005      	beq.n	10003db8 <irq_remove_handler+0xe0>
10003dac:	465a      	mov	r2, fp
10003dae:	4b30      	ldr	r3, [pc, #192]	; (10003e70 <irq_remove_handler+0x198>)
10003db0:	601a      	str	r2, [r3, #0]
10003db2:	4b2d      	ldr	r3, [pc, #180]	; (10003e68 <irq_remove_handler+0x190>)
10003db4:	601a      	str	r2, [r3, #0]
10003db6:	e7b2      	b.n	10003d1e <irq_remove_handler+0x46>
10003db8:	465a      	mov	r2, fp
10003dba:	4b2c      	ldr	r3, [pc, #176]	; (10003e6c <irq_remove_handler+0x194>)
10003dbc:	601a      	str	r2, [r3, #0]
10003dbe:	e7ae      	b.n	10003d1e <irq_remove_handler+0x46>
10003dc0:	2006      	movs	r0, #6
10003dc2:	5618      	ldrsb	r0, [r3, r0]
10003dc4:	2800      	cmp	r0, #0
10003dc6:	db21      	blt.n	10003e0c <irq_remove_handler+0x134>
10003dc8:	0042      	lsls	r2, r0, #1
10003dca:	1811      	adds	r1, r2, r0
10003dcc:	0089      	lsls	r1, r1, #2
10003dce:	187c      	adds	r4, r7, r1
10003dd0:	4688      	mov	r8, r1
10003dd2:	68a1      	ldr	r1, [r4, #8]
10003dd4:	6099      	str	r1, [r3, #8]
10003dd6:	79e1      	ldrb	r1, [r4, #7]
10003dd8:	71d9      	strb	r1, [r3, #7]
10003dda:	2106      	movs	r1, #6
10003ddc:	5661      	ldrsb	r1, [r4, r1]
10003dde:	7199      	strb	r1, [r3, #6]
10003de0:	2900      	cmp	r1, #0
10003de2:	db1f      	blt.n	10003e24 <irq_remove_handler+0x14c>
10003de4:	88a4      	ldrh	r4, [r4, #4]
10003de6:	1af9      	subs	r1, r7, r3
10003de8:	0564      	lsls	r4, r4, #21
10003dea:	1524      	asrs	r4, r4, #20
10003dec:	4444      	add	r4, r8
10003dee:	1909      	adds	r1, r1, r4
10003df0:	24e0      	movs	r4, #224	; 0xe0
10003df2:	0509      	lsls	r1, r1, #20
10003df4:	0d49      	lsrs	r1, r1, #21
10003df6:	0224      	lsls	r4, r4, #8
10003df8:	4321      	orrs	r1, r4
10003dfa:	8099      	strh	r1, [r3, #4]
10003dfc:	1812      	adds	r2, r2, r0
10003dfe:	4b1d      	ldr	r3, [pc, #116]	; (10003e74 <irq_remove_handler+0x19c>)
10003e00:	0092      	lsls	r2, r2, #2
10003e02:	18bf      	adds	r7, r7, r2
10003e04:	781a      	ldrb	r2, [r3, #0]
10003e06:	7018      	strb	r0, [r3, #0]
10003e08:	71ba      	strb	r2, [r7, #6]
10003e0a:	e7cc      	b.n	10003da6 <irq_remove_handler+0xce>
10003e0c:	9801      	ldr	r0, [sp, #4]
10003e0e:	2800      	cmp	r0, #0
10003e10:	d10b      	bne.n	10003e2a <irq_remove_handler+0x152>
10003e12:	30ff      	adds	r0, #255	; 0xff
10003e14:	7190      	strb	r0, [r2, #6]
10003e16:	4818      	ldr	r0, [pc, #96]	; (10003e78 <irq_remove_handler+0x1a0>)
10003e18:	8090      	strh	r0, [r2, #4]
10003e1a:	4a16      	ldr	r2, [pc, #88]	; (10003e74 <irq_remove_handler+0x19c>)
10003e1c:	7810      	ldrb	r0, [r2, #0]
10003e1e:	7011      	strb	r1, [r2, #0]
10003e20:	7198      	strb	r0, [r3, #6]
10003e22:	e7c0      	b.n	10003da6 <irq_remove_handler+0xce>
10003e24:	21bd      	movs	r1, #189	; 0xbd
10003e26:	0209      	lsls	r1, r1, #8
10003e28:	e7e7      	b.n	10003dfa <irq_remove_handler+0x122>
10003e2a:	4a14      	ldr	r2, [pc, #80]	; (10003e7c <irq_remove_handler+0x1a4>)
10003e2c:	4914      	ldr	r1, [pc, #80]	; (10003e80 <irq_remove_handler+0x1a8>)
10003e2e:	1ad2      	subs	r2, r2, r3
10003e30:	3a08      	subs	r2, #8
10003e32:	0250      	lsls	r0, r2, #9
10003e34:	0d40      	lsrs	r0, r0, #21
10003e36:	4301      	orrs	r1, r0
10003e38:	8099      	strh	r1, [r3, #4]
10003e3a:	4912      	ldr	r1, [pc, #72]	; (10003e84 <irq_remove_handler+0x1ac>)
10003e3c:	0852      	lsrs	r2, r2, #1
10003e3e:	430a      	orrs	r2, r1
10003e40:	80da      	strh	r2, [r3, #6]
10003e42:	e7b0      	b.n	10003da6 <irq_remove_handler+0xce>
10003e44:	2006      	movs	r0, #6
10003e46:	5610      	ldrsb	r0, [r2, r0]
10003e48:	0013      	movs	r3, r2
10003e4a:	2800      	cmp	r0, #0
10003e4c:	dabc      	bge.n	10003dc8 <irq_remove_handler+0xf0>
10003e4e:	9a01      	ldr	r2, [sp, #4]
10003e50:	2a00      	cmp	r2, #0
10003e52:	d1ea      	bne.n	10003e2a <irq_remove_handler+0x152>
10003e54:	4645      	mov	r5, r8
10003e56:	e7e0      	b.n	10003e1a <irq_remove_handler+0x142>
10003e58:	d0000124 	.word	0xd0000124
10003e5c:	e000ed00 	.word	0xe000ed00
10003e60:	100001cd 	.word	0x100001cd
10003e64:	20000950 	.word	0x20000950
10003e68:	e000e100 	.word	0xe000e100
10003e6c:	e000e180 	.word	0xe000e180
10003e70:	e000e280 	.word	0xe000e280
10003e74:	2002abc8 	.word	0x2002abc8
10003e78:	ffffbd00 	.word	0xffffbd00
10003e7c:	2000098a 	.word	0x2000098a
10003e80:	fffff000 	.word	0xfffff000
10003e84:	fffff800 	.word	0xfffff800
10003e88:	0000aaaa 	.word	0x0000aaaa

10003e8c <irq_add_tail_to_free_list>:
10003e8c:	b5f8      	push	{r3, r4, r5, r6, r7, lr}
10003e8e:	2501      	movs	r5, #1
10003e90:	0004      	movs	r4, r0
10003e92:	4305      	orrs	r5, r0
10003e94:	f7fc f9e7 	bl	10000266 <__get_current_exception>
10003e98:	f3ef 8c10 	mrs	ip, PRIMASK
10003e9c:	b672      	cpsid	i
10003e9e:	4a21      	ldr	r2, [pc, #132]	; (10003f24 <irq_add_tail_to_free_list+0x98>)
10003ea0:	6813      	ldr	r3, [r2, #0]
10003ea2:	2b00      	cmp	r3, #0
10003ea4:	d0fc      	beq.n	10003ea0 <irq_add_tail_to_free_list+0x14>
10003ea6:	f3bf 8f5f 	dmb	sy
10003eaa:	4e1f      	ldr	r6, [pc, #124]	; (10003f28 <irq_add_tail_to_free_list+0x9c>)
10003eac:	0022      	movs	r2, r4
10003eae:	68b7      	ldr	r7, [r6, #8]
10003eb0:	491e      	ldr	r1, [pc, #120]	; (10003f2c <irq_add_tail_to_free_list+0xa0>)
10003eb2:	1a52      	subs	r2, r2, r1
10003eb4:	4152      	adcs	r2, r2
10003eb6:	4b21      	ldr	r3, [pc, #132]	; (10003f3c <irq_add_tail_to_free_list+0xb0>)
10003eb8:	4353      	muls	r3, r2
10003eba:	0d1b      	lsrs	r3, r3, #20
10003ebc:	0082      	lsls	r2, r0, #2
10003ebe:	58b8      	ldr	r0, [r7, r2]
10003ec0:	b25b      	sxtb	r3, r3
10003ec2:	42a8      	cmp	r0, r5
10003ec4:	d01c      	beq.n	10003f00 <irq_add_tail_to_free_list+0x74>
10003ec6:	2206      	movs	r2, #6
10003ec8:	568a      	ldrsb	r2, [r1, r2]
10003eca:	429a      	cmp	r2, r3
10003ecc:	d01c      	beq.n	10003f08 <irq_add_tail_to_free_list+0x7c>
10003ece:	2212      	movs	r2, #18
10003ed0:	568a      	ldrsb	r2, [r1, r2]
10003ed2:	429a      	cmp	r2, r3
10003ed4:	d022      	beq.n	10003f1c <irq_add_tail_to_free_list+0x90>
10003ed6:	221e      	movs	r2, #30
10003ed8:	568a      	ldrsb	r2, [r1, r2]
10003eda:	429a      	cmp	r2, r3
10003edc:	d020      	beq.n	10003f20 <irq_add_tail_to_free_list+0x94>
10003ede:	222a      	movs	r2, #42	; 0x2a
10003ee0:	568a      	ldrsb	r2, [r1, r2]
10003ee2:	2003      	movs	r0, #3
10003ee4:	429a      	cmp	r2, r3
10003ee6:	d010      	beq.n	10003f0a <irq_add_tail_to_free_list+0x7e>
10003ee8:	4a11      	ldr	r2, [pc, #68]	; (10003f30 <irq_add_tail_to_free_list+0xa4>)
10003eea:	7811      	ldrb	r1, [r2, #0]
10003eec:	7013      	strb	r3, [r2, #0]
10003eee:	71a1      	strb	r1, [r4, #6]
10003ef0:	f3bf 8f5f 	dmb	sy
10003ef4:	2200      	movs	r2, #0
10003ef6:	4b0b      	ldr	r3, [pc, #44]	; (10003f24 <irq_add_tail_to_free_list+0x98>)
10003ef8:	601a      	str	r2, [r3, #0]
10003efa:	f38c 8810 	msr	PRIMASK, ip
10003efe:	bdf8      	pop	{r3, r4, r5, r6, r7, pc}
10003f00:	68b1      	ldr	r1, [r6, #8]
10003f02:	480c      	ldr	r0, [pc, #48]	; (10003f34 <irq_add_tail_to_free_list+0xa8>)
10003f04:	5088      	str	r0, [r1, r2]
10003f06:	e7ef      	b.n	10003ee8 <irq_add_tail_to_free_list+0x5c>
10003f08:	2000      	movs	r0, #0
10003f0a:	0042      	lsls	r2, r0, #1
10003f0c:	1812      	adds	r2, r2, r0
10003f0e:	0092      	lsls	r2, r2, #2
10003f10:	1889      	adds	r1, r1, r2
10003f12:	22ff      	movs	r2, #255	; 0xff
10003f14:	718a      	strb	r2, [r1, #6]
10003f16:	4a08      	ldr	r2, [pc, #32]	; (10003f38 <irq_add_tail_to_free_list+0xac>)
10003f18:	808a      	strh	r2, [r1, #4]
10003f1a:	e7e5      	b.n	10003ee8 <irq_add_tail_to_free_list+0x5c>
10003f1c:	2001      	movs	r0, #1
10003f1e:	e7f4      	b.n	10003f0a <irq_add_tail_to_free_list+0x7e>
10003f20:	2002      	movs	r0, #2
10003f22:	e7f2      	b.n	10003f0a <irq_add_tail_to_free_list+0x7e>
10003f24:	d0000124 	.word	0xd0000124
10003f28:	e000ed00 	.word	0xe000ed00
10003f2c:	20000950 	.word	0x20000950
10003f30:	2002abc8 	.word	0x2002abc8
10003f34:	100001cd 	.word	0x100001cd
10003f38:	ffffbd00 	.word	0xffffbd00
10003f3c:	0000aaaa 	.word	0x0000aaaa

10003f40 <irq_init_priorities>:
10003f40:	b5f0      	push	{r4, r5, r6, r7, lr}
10003f42:	2200      	movs	r2, #0
10003f44:	2403      	movs	r4, #3
10003f46:	27ff      	movs	r7, #255	; 0xff
10003f48:	2680      	movs	r6, #128	; 0x80
10003f4a:	0020      	movs	r0, r4
10003f4c:	003d      	movs	r5, r7
10003f4e:	4b09      	ldr	r3, [pc, #36]	; (10003f74 <irq_init_priorities+0x34>)
10003f50:	0011      	movs	r1, r2
10003f52:	469c      	mov	ip, r3
10003f54:	4010      	ands	r0, r2
10003f56:	00c0      	lsls	r0, r0, #3
10003f58:	4085      	lsls	r5, r0
10003f5a:	43a1      	bics	r1, r4
10003f5c:	4461      	add	r1, ip
10003f5e:	680b      	ldr	r3, [r1, #0]
10003f60:	3201      	adds	r2, #1
10003f62:	43ab      	bics	r3, r5
10003f64:	0035      	movs	r5, r6
10003f66:	4085      	lsls	r5, r0
10003f68:	432b      	orrs	r3, r5
10003f6a:	600b      	str	r3, [r1, #0]
10003f6c:	2a20      	cmp	r2, #32
10003f6e:	d1ec      	bne.n	10003f4a <irq_init_priorities+0xa>
10003f70:	bdf0      	pop	{r4, r5, r6, r7, pc}
10003f72:	46c0      	nop			; (mov r8, r8)
10003f74:	e000e400 	.word	0xe000e400

10003f78 <pll_init>:
10003f78:	b5f0      	push	{r4, r5, r6, r7, lr}
10003f7a:	46c6      	mov	lr, r8
10003f7c:	0004      	movs	r4, r0
10003f7e:	b500      	push	{lr}
10003f80:	200c      	movs	r0, #12
10003f82:	4690      	mov	r8, r2
10003f84:	001f      	movs	r7, r3
10003f86:	000e      	movs	r6, r1
10003f88:	f000 f8f4 	bl	10004174 <__wrap___aeabi_uidiv>
10003f8c:	0141      	lsls	r1, r0, #5
10003f8e:	1a09      	subs	r1, r1, r0
10003f90:	018d      	lsls	r5, r1, #6
10003f92:	1a69      	subs	r1, r5, r1
10003f94:	00c9      	lsls	r1, r1, #3
10003f96:	1809      	adds	r1, r1, r0
10003f98:	0189      	lsls	r1, r1, #6
10003f9a:	4640      	mov	r0, r8
10003f9c:	f000 f8ea 	bl	10004174 <__wrap___aeabi_uidiv>
10003fa0:	9b06      	ldr	r3, [sp, #24]
10003fa2:	043f      	lsls	r7, r7, #16
10003fa4:	031a      	lsls	r2, r3, #12
10003fa6:	6823      	ldr	r3, [r4, #0]
10003fa8:	4317      	orrs	r7, r2
10003faa:	2b00      	cmp	r3, #0
10003fac:	db22      	blt.n	10003ff4 <pll_init+0x7c>
10003fae:	4b18      	ldr	r3, [pc, #96]	; (10004010 <pll_init+0x98>)
10003fb0:	4d18      	ldr	r5, [pc, #96]	; (10004014 <pll_init+0x9c>)
10003fb2:	18e2      	adds	r2, r4, r3
10003fb4:	4253      	negs	r3, r2
10003fb6:	415a      	adcs	r2, r3
10003fb8:	2380      	movs	r3, #128	; 0x80
10003fba:	015b      	lsls	r3, r3, #5
10003fbc:	469c      	mov	ip, r3
10003fbe:	0312      	lsls	r2, r2, #12
10003fc0:	4b15      	ldr	r3, [pc, #84]	; (10004018 <pll_init+0xa0>)
10003fc2:	4462      	add	r2, ip
10003fc4:	601a      	str	r2, [r3, #0]
10003fc6:	4b15      	ldr	r3, [pc, #84]	; (1000401c <pll_init+0xa4>)
10003fc8:	601a      	str	r2, [r3, #0]
10003fca:	0011      	movs	r1, r2
10003fcc:	68ab      	ldr	r3, [r5, #8]
10003fce:	4399      	bics	r1, r3
10003fd0:	d1fb      	bne.n	10003fca <pll_init+0x52>
10003fd2:	22c0      	movs	r2, #192	; 0xc0
10003fd4:	1d23      	adds	r3, r4, #4
10003fd6:	0192      	lsls	r2, r2, #6
10003fd8:	431a      	orrs	r2, r3
10003fda:	2321      	movs	r3, #33	; 0x21
10003fdc:	6026      	str	r6, [r4, #0]
10003fde:	60a0      	str	r0, [r4, #8]
10003fe0:	6013      	str	r3, [r2, #0]
10003fe2:	6823      	ldr	r3, [r4, #0]
10003fe4:	2b00      	cmp	r3, #0
10003fe6:	dafc      	bge.n	10003fe2 <pll_init+0x6a>
10003fe8:	2308      	movs	r3, #8
10003fea:	60e7      	str	r7, [r4, #12]
10003fec:	6013      	str	r3, [r2, #0]
10003fee:	bc80      	pop	{r7}
10003ff0:	46b8      	mov	r8, r7
10003ff2:	bdf0      	pop	{r4, r5, r6, r7, pc}
10003ff4:	233f      	movs	r3, #63	; 0x3f
10003ff6:	6822      	ldr	r2, [r4, #0]
10003ff8:	4013      	ands	r3, r2
10003ffa:	42b3      	cmp	r3, r6
10003ffc:	d1d7      	bne.n	10003fae <pll_init+0x36>
10003ffe:	68a3      	ldr	r3, [r4, #8]
10004000:	051b      	lsls	r3, r3, #20
10004002:	0d1b      	lsrs	r3, r3, #20
10004004:	4283      	cmp	r3, r0
10004006:	d1d2      	bne.n	10003fae <pll_init+0x36>
10004008:	68e3      	ldr	r3, [r4, #12]
1000400a:	2f00      	cmp	r7, #0
1000400c:	d1cf      	bne.n	10003fae <pll_init+0x36>
1000400e:	e7ee      	b.n	10003fee <pll_init+0x76>
10004010:	bffd4000 	.word	0xbffd4000
10004014:	4000c000 	.word	0x4000c000
10004018:	4000e000 	.word	0x4000e000
1000401c:	4000f000 	.word	0x4000f000

10004020 <watchdog_start_tick>:
10004020:	2380      	movs	r3, #128	; 0x80
10004022:	4a02      	ldr	r2, [pc, #8]	; (1000402c <watchdog_start_tick+0xc>)
10004024:	009b      	lsls	r3, r3, #2
10004026:	4303      	orrs	r3, r0
10004028:	62d3      	str	r3, [r2, #44]	; 0x2c
1000402a:	4770      	bx	lr
1000402c:	40058000 	.word	0x40058000

10004030 <xosc_init>:
10004030:	23aa      	movs	r3, #170	; 0xaa
10004032:	4a06      	ldr	r2, [pc, #24]	; (1000404c <xosc_init+0x1c>)
10004034:	011b      	lsls	r3, r3, #4
10004036:	6013      	str	r3, [r2, #0]
10004038:	232f      	movs	r3, #47	; 0x2f
1000403a:	4905      	ldr	r1, [pc, #20]	; (10004050 <xosc_init+0x20>)
1000403c:	60d3      	str	r3, [r2, #12]
1000403e:	4b05      	ldr	r3, [pc, #20]	; (10004054 <xosc_init+0x24>)
10004040:	6019      	str	r1, [r3, #0]
10004042:	6853      	ldr	r3, [r2, #4]
10004044:	2b00      	cmp	r3, #0
10004046:	dafc      	bge.n	10004042 <xosc_init+0x12>
10004048:	4770      	bx	lr
1000404a:	46c0      	nop			; (mov r8, r8)
1000404c:	40024000 	.word	0x40024000
10004050:	00fab000 	.word	0x00fab000
10004054:	40026000 	.word	0x40026000

10004058 <_out_char>:
10004058:	b510      	push	{r4, lr}
1000405a:	2800      	cmp	r0, #0
1000405c:	d100      	bne.n	10004060 <_out_char+0x8>
1000405e:	bd10      	pop	{r4, pc}
10004060:	f000 fc60 	bl	10004924 <__wrap_putchar>
10004064:	e7fb      	b.n	1000405e <_out_char+0x6>
10004066:	46c0      	nop			; (mov r8, r8)

10004068 <weak_raw_vprintf>:
10004068:	b510      	push	{r4, lr}
1000406a:	4a09      	ldr	r2, [pc, #36]	; (10004090 <weak_raw_vprintf+0x28>)
1000406c:	0003      	movs	r3, r0
1000406e:	6814      	ldr	r4, [r2, #0]
10004070:	b084      	sub	sp, #16
10004072:	2c00      	cmp	r4, #0
10004074:	d008      	beq.n	10004088 <weak_raw_vprintf+0x20>
10004076:	2201      	movs	r2, #1
10004078:	9100      	str	r1, [sp, #0]
1000407a:	4806      	ldr	r0, [pc, #24]	; (10004094 <weak_raw_vprintf+0x2c>)
1000407c:	4252      	negs	r2, r2
1000407e:	a903      	add	r1, sp, #12
10004080:	47a0      	blx	r4
10004082:	2001      	movs	r0, #1
10004084:	b004      	add	sp, #16
10004086:	bd10      	pop	{r4, pc}
10004088:	f000 fc5a 	bl	10004940 <__wrap_puts>
1000408c:	2000      	movs	r0, #0
1000408e:	e7f9      	b.n	10004084 <weak_raw_vprintf+0x1c>
10004090:	20027b84 	.word	0x20027b84
10004094:	10004059 	.word	0x10004059

10004098 <__aeabi_bits_init>:
10004098:	4801      	ldr	r0, [pc, #4]	; (100040a0 <__aeabi_bits_init+0x8>)
1000409a:	2104      	movs	r1, #4
1000409c:	4b01      	ldr	r3, [pc, #4]	; (100040a4 <__aeabi_bits_init+0xc>)
1000409e:	4718      	bx	r3
100040a0:	200009a0 	.word	0x200009a0
100040a4:	100040e1 	.word	0x100040e1

100040a8 <__wrap___clz>:
100040a8:	4b01      	ldr	r3, [pc, #4]	; (100040b0 <__wrap___clz+0x8>)
100040aa:	685b      	ldr	r3, [r3, #4]
100040ac:	4718      	bx	r3
100040ae:	0000      	.short	0x0000
100040b0:	200009a0 	.word	0x200009a0

100040b4 <__wrap___ctzsi2>:
100040b4:	4b01      	ldr	r3, [pc, #4]	; (100040bc <__wrap___ctzsi2+0x8>)
100040b6:	689b      	ldr	r3, [r3, #8]
100040b8:	4718      	bx	r3
100040ba:	0000      	.short	0x0000
100040bc:	200009a0 	.word	0x200009a0

100040c0 <rom_func_lookup>:
100040c0:	2314      	movs	r3, #20
100040c2:	b510      	push	{r4, lr}
100040c4:	0001      	movs	r1, r0
100040c6:	8818      	ldrh	r0, [r3, #0]
100040c8:	3304      	adds	r3, #4
100040ca:	881b      	ldrh	r3, [r3, #0]
100040cc:	4798      	blx	r3
100040ce:	bd10      	pop	{r4, pc}

100040d0 <rom_data_lookup>:
100040d0:	2316      	movs	r3, #22
100040d2:	b510      	push	{r4, lr}
100040d4:	0001      	movs	r1, r0
100040d6:	8818      	ldrh	r0, [r3, #0]
100040d8:	3302      	adds	r3, #2
100040da:	881b      	ldrh	r3, [r3, #0]
100040dc:	4798      	blx	r3
100040de:	bd10      	pop	{r4, pc}

100040e0 <rom_funcs_lookup>:
100040e0:	b5f8      	push	{r3, r4, r5, r6, r7, lr}
100040e2:	4647      	mov	r7, r8
100040e4:	46ce      	mov	lr, r9
100040e6:	b580      	push	{r7, lr}
100040e8:	1e0f      	subs	r7, r1, #0
100040ea:	d019      	beq.n	10004120 <rom_funcs_lookup+0x40>
100040ec:	2314      	movs	r3, #20
100040ee:	4699      	mov	r9, r3
100040f0:	3304      	adds	r3, #4
100040f2:	0004      	movs	r4, r0
100040f4:	2500      	movs	r5, #0
100040f6:	2601      	movs	r6, #1
100040f8:	4698      	mov	r8, r3
100040fa:	464b      	mov	r3, r9
100040fc:	8818      	ldrh	r0, [r3, #0]
100040fe:	4643      	mov	r3, r8
10004100:	6821      	ldr	r1, [r4, #0]
10004102:	881b      	ldrh	r3, [r3, #0]
10004104:	4798      	blx	r3
10004106:	c401      	stmia	r4!, {r0}
10004108:	1e43      	subs	r3, r0, #1
1000410a:	4198      	sbcs	r0, r3
1000410c:	3501      	adds	r5, #1
1000410e:	4240      	negs	r0, r0
10004110:	4006      	ands	r6, r0
10004112:	42af      	cmp	r7, r5
10004114:	d1f1      	bne.n	100040fa <rom_funcs_lookup+0x1a>
10004116:	0030      	movs	r0, r6
10004118:	bcc0      	pop	{r6, r7}
1000411a:	46b9      	mov	r9, r7
1000411c:	46b0      	mov	r8, r6
1000411e:	bdf8      	pop	{r3, r4, r5, r6, r7, pc}
10004120:	2601      	movs	r6, #1
10004122:	e7f8      	b.n	10004116 <rom_funcs_lookup+0x36>

10004124 <__wrap___aeabi_idiv>:
10004124:	4a12      	ldr	r2, [pc, #72]	; (10004170 <divmod_s32s32_savestate+0x18>)
10004126:	6f93      	ldr	r3, [r2, #120]	; 0x78
10004128:	089b      	lsrs	r3, r3, #2
1000412a:	d215      	bcs.n	10004158 <divmod_s32s32_savestate>

1000412c <divmod_s32s32_unsafe>:
1000412c:	6690      	str	r0, [r2, #104]	; 0x68
1000412e:	66d1      	str	r1, [r2, #108]	; 0x6c
10004130:	2900      	cmp	r1, #0
10004132:	d005      	beq.n	10004140 <divmod_s32s32_unsafe+0x14>
10004134:	e7ff      	b.n	10004136 <divmod_s32s32_unsafe+0xa>
10004136:	e7ff      	b.n	10004138 <divmod_s32s32_unsafe+0xc>
10004138:	e7ff      	b.n	1000413a <divmod_s32s32_unsafe+0xe>
1000413a:	6f51      	ldr	r1, [r2, #116]	; 0x74
1000413c:	6f10      	ldr	r0, [r2, #112]	; 0x70
1000413e:	4770      	bx	lr
10004140:	b504      	push	{r2, lr}
10004142:	2180      	movs	r1, #128	; 0x80
10004144:	0609      	lsls	r1, r1, #24
10004146:	17c2      	asrs	r2, r0, #31
10004148:	4051      	eors	r1, r2
1000414a:	2800      	cmp	r0, #0
1000414c:	d000      	beq.n	10004150 <divmod_s32s32_unsafe+0x24>
1000414e:	43c8      	mvns	r0, r1
10004150:	f001 f812 	bl	10005178 <____aeabi_idiv0_veneer>
10004154:	2100      	movs	r1, #0
10004156:	bd04      	pop	{r2, pc}

10004158 <divmod_s32s32_savestate>:
10004158:	b5f0      	push	{r4, r5, r6, r7, lr}
1000415a:	6e14      	ldr	r4, [r2, #96]	; 0x60
1000415c:	6e55      	ldr	r5, [r2, #100]	; 0x64
1000415e:	6f57      	ldr	r7, [r2, #116]	; 0x74
10004160:	6f16      	ldr	r6, [r2, #112]	; 0x70
10004162:	f7ff ffe3 	bl	1000412c <divmod_s32s32_unsafe>
10004166:	6614      	str	r4, [r2, #96]	; 0x60
10004168:	6655      	str	r5, [r2, #100]	; 0x64
1000416a:	6757      	str	r7, [r2, #116]	; 0x74
1000416c:	6716      	str	r6, [r2, #112]	; 0x70
1000416e:	bdf0      	pop	{r4, r5, r6, r7, pc}
10004170:	d0000000 	.word	0xd0000000

10004174 <__wrap___aeabi_uidiv>:
10004174:	4a11      	ldr	r2, [pc, #68]	; (100041bc <divmod_u32u32_savestate+0x18>)
10004176:	6f93      	ldr	r3, [r2, #120]	; 0x78
10004178:	089b      	lsrs	r3, r3, #2
1000417a:	d213      	bcs.n	100041a4 <divmod_u32u32_savestate>

1000417c <divmod_u32u32_unsafe>:
1000417c:	6610      	str	r0, [r2, #96]	; 0x60
1000417e:	6651      	str	r1, [r2, #100]	; 0x64
10004180:	2900      	cmp	r1, #0
10004182:	d005      	beq.n	10004190 <divmod_u32u32_unsafe+0x14>
10004184:	e7ff      	b.n	10004186 <divmod_u32u32_unsafe+0xa>
10004186:	e7ff      	b.n	10004188 <divmod_u32u32_unsafe+0xc>
10004188:	e7ff      	b.n	1000418a <divmod_u32u32_unsafe+0xe>
1000418a:	6f51      	ldr	r1, [r2, #116]	; 0x74
1000418c:	6f10      	ldr	r0, [r2, #112]	; 0x70
1000418e:	4770      	bx	lr
10004190:	b504      	push	{r2, lr}
10004192:	2800      	cmp	r0, #0
10004194:	d001      	beq.n	1000419a <divmod_u32u32_unsafe+0x1e>
10004196:	2000      	movs	r0, #0
10004198:	43c0      	mvns	r0, r0
1000419a:	f000 ffed 	bl	10005178 <____aeabi_idiv0_veneer>
1000419e:	2100      	movs	r1, #0
100041a0:	bd04      	pop	{r2, pc}
100041a2:	46c0      	nop			; (mov r8, r8)

100041a4 <divmod_u32u32_savestate>:
100041a4:	b5f0      	push	{r4, r5, r6, r7, lr}
100041a6:	6e14      	ldr	r4, [r2, #96]	; 0x60
100041a8:	6e55      	ldr	r5, [r2, #100]	; 0x64
100041aa:	6f57      	ldr	r7, [r2, #116]	; 0x74
100041ac:	6f16      	ldr	r6, [r2, #112]	; 0x70
100041ae:	f7ff ffe5 	bl	1000417c <divmod_u32u32_unsafe>
100041b2:	6614      	str	r4, [r2, #96]	; 0x60
100041b4:	6655      	str	r5, [r2, #100]	; 0x64
100041b6:	6757      	str	r7, [r2, #116]	; 0x74
100041b8:	6716      	str	r6, [r2, #112]	; 0x70
100041ba:	bdf0      	pop	{r4, r5, r6, r7, pc}
100041bc:	d0000000 	.word	0xd0000000

100041c0 <__wrap___aeabi_ldivmod>:
100041c0:	4694      	mov	ip, r2
100041c2:	4a4e      	ldr	r2, [pc, #312]	; (100042fc <udiv0+0x1a>)
100041c4:	6f92      	ldr	r2, [r2, #120]	; 0x78
100041c6:	0892      	lsrs	r2, r2, #2
100041c8:	4662      	mov	r2, ip
100041ca:	d201      	bcs.n	100041d0 <divmod_s64s64_savestate>
100041cc:	e030      	b.n	10004230 <divmod_s64s64_unsafe>
100041ce:	46c0      	nop			; (mov r8, r8)

100041d0 <divmod_s64s64_savestate>:
100041d0:	b5f0      	push	{r4, r5, r6, r7, lr}
100041d2:	4e4a      	ldr	r6, [pc, #296]	; (100042fc <udiv0+0x1a>)
100041d4:	6fb5      	ldr	r5, [r6, #120]	; 0x78
100041d6:	086d      	lsrs	r5, r5, #1
100041d8:	d3fc      	bcc.n	100041d4 <divmod_s64s64_savestate+0x4>
100041da:	6e34      	ldr	r4, [r6, #96]	; 0x60
100041dc:	6e75      	ldr	r5, [r6, #100]	; 0x64
100041de:	6f77      	ldr	r7, [r6, #116]	; 0x74
100041e0:	6f36      	ldr	r6, [r6, #112]	; 0x70
100041e2:	f000 f825 	bl	10004230 <divmod_s64s64_unsafe>
100041e6:	4694      	mov	ip, r2
100041e8:	4a44      	ldr	r2, [pc, #272]	; (100042fc <udiv0+0x1a>)
100041ea:	6614      	str	r4, [r2, #96]	; 0x60
100041ec:	6655      	str	r5, [r2, #100]	; 0x64
100041ee:	6757      	str	r7, [r2, #116]	; 0x74
100041f0:	6716      	str	r6, [r2, #112]	; 0x70
100041f2:	4662      	mov	r2, ip
100041f4:	bdf0      	pop	{r4, r5, r6, r7, pc}
100041f6:	46c0      	nop			; (mov r8, r8)

100041f8 <__wrap___aeabi_uldivmod>:
100041f8:	4694      	mov	ip, r2
100041fa:	4a40      	ldr	r2, [pc, #256]	; (100042fc <udiv0+0x1a>)
100041fc:	6f92      	ldr	r2, [r2, #120]	; 0x78
100041fe:	0892      	lsrs	r2, r2, #2
10004200:	4662      	mov	r2, ip
10004202:	d201      	bcs.n	10004208 <divmod_u64u64_savestate>
10004204:	e058      	b.n	100042b8 <divmod_u64u64_unsafe>
10004206:	46c0      	nop			; (mov r8, r8)

10004208 <divmod_u64u64_savestate>:
10004208:	b5f0      	push	{r4, r5, r6, r7, lr}
1000420a:	4e3c      	ldr	r6, [pc, #240]	; (100042fc <udiv0+0x1a>)
1000420c:	6fb5      	ldr	r5, [r6, #120]	; 0x78
1000420e:	086d      	lsrs	r5, r5, #1
10004210:	d3fc      	bcc.n	1000420c <divmod_u64u64_savestate+0x4>
10004212:	6e34      	ldr	r4, [r6, #96]	; 0x60
10004214:	6e75      	ldr	r5, [r6, #100]	; 0x64
10004216:	6f77      	ldr	r7, [r6, #116]	; 0x74
10004218:	6f36      	ldr	r6, [r6, #112]	; 0x70
1000421a:	f000 f84d 	bl	100042b8 <divmod_u64u64_unsafe>
1000421e:	4694      	mov	ip, r2
10004220:	4a36      	ldr	r2, [pc, #216]	; (100042fc <udiv0+0x1a>)
10004222:	6614      	str	r4, [r2, #96]	; 0x60
10004224:	6655      	str	r5, [r2, #100]	; 0x64
10004226:	6757      	str	r7, [r2, #116]	; 0x74
10004228:	6716      	str	r6, [r2, #112]	; 0x70
1000422a:	4662      	mov	r2, ip
1000422c:	bdf0      	pop	{r4, r5, r6, r7, pc}
1000422e:	46c0      	nop			; (mov r8, r8)

10004230 <divmod_s64s64_unsafe>:
10004230:	2b00      	cmp	r3, #0
10004232:	db24      	blt.n	1000427e <l41_1+0x26>
10004234:	d011      	beq.n	1000425a <l41_1+0x2>
10004236:	2900      	cmp	r1, #0
10004238:	da3e      	bge.n	100042b8 <divmod_u64u64_unsafe>
1000423a:	b500      	push	{lr}
1000423c:	43c9      	mvns	r1, r1
1000423e:	4240      	negs	r0, r0
10004240:	d100      	bne.n	10004244 <l39_1>
10004242:	3101      	adds	r1, #1

10004244 <l39_1>:
10004244:	f000 f838 	bl	100042b8 <divmod_u64u64_unsafe>
10004248:	43c9      	mvns	r1, r1
1000424a:	4240      	negs	r0, r0
1000424c:	d100      	bne.n	10004250 <l40_1>
1000424e:	3101      	adds	r1, #1

10004250 <l40_1>:
10004250:	43db      	mvns	r3, r3
10004252:	4252      	negs	r2, r2
10004254:	d100      	bne.n	10004258 <l41_1>
10004256:	3301      	adds	r3, #1

10004258 <l41_1>:
10004258:	bd00      	pop	{pc}
1000425a:	2a00      	cmp	r2, #0
1000425c:	d1eb      	bne.n	10004236 <divmod_s64s64_unsafe+0x6>
1000425e:	2800      	cmp	r0, #0
10004260:	d101      	bne.n	10004266 <l41_1+0xe>
10004262:	2900      	cmp	r1, #0
10004264:	d005      	beq.n	10004272 <l41_1+0x1a>
10004266:	2000      	movs	r0, #0
10004268:	0fc9      	lsrs	r1, r1, #31
1000426a:	07c9      	lsls	r1, r1, #31
1000426c:	d101      	bne.n	10004272 <l41_1+0x1a>
1000426e:	43c0      	mvns	r0, r0
10004270:	0841      	lsrs	r1, r0, #1
10004272:	b500      	push	{lr}
10004274:	f000 ff68 	bl	10005148 <____aeabi_ldiv0_veneer>
10004278:	2200      	movs	r2, #0
1000427a:	2300      	movs	r3, #0
1000427c:	bd00      	pop	{pc}
1000427e:	b500      	push	{lr}
10004280:	2900      	cmp	r1, #0
10004282:	db0a      	blt.n	1000429a <l43_1+0x2>
10004284:	43db      	mvns	r3, r3
10004286:	4252      	negs	r2, r2
10004288:	d100      	bne.n	1000428c <l42_1>
1000428a:	3301      	adds	r3, #1

1000428c <l42_1>:
1000428c:	f000 f814 	bl	100042b8 <divmod_u64u64_unsafe>
10004290:	43c9      	mvns	r1, r1
10004292:	4240      	negs	r0, r0
10004294:	d100      	bne.n	10004298 <l43_1>
10004296:	3101      	adds	r1, #1

10004298 <l43_1>:
10004298:	bd00      	pop	{pc}
1000429a:	43c9      	mvns	r1, r1
1000429c:	4240      	negs	r0, r0
1000429e:	d100      	bne.n	100042a2 <l44_1>
100042a0:	3101      	adds	r1, #1

100042a2 <l44_1>:
100042a2:	43db      	mvns	r3, r3
100042a4:	4252      	negs	r2, r2
100042a6:	d100      	bne.n	100042aa <l45_1>
100042a8:	3301      	adds	r3, #1

100042aa <l45_1>:
100042aa:	f000 f805 	bl	100042b8 <divmod_u64u64_unsafe>
100042ae:	43db      	mvns	r3, r3
100042b0:	4252      	negs	r2, r2
100042b2:	d100      	bne.n	100042b6 <l46_1>
100042b4:	3301      	adds	r3, #1

100042b6 <l46_1>:
100042b6:	bd00      	pop	{pc}

100042b8 <divmod_u64u64_unsafe>:
100042b8:	2900      	cmp	r1, #0
100042ba:	d123      	bne.n	10004304 <y64>
100042bc:	2b00      	cmp	r3, #0
100042be:	d118      	bne.n	100042f2 <udiv0+0x10>
100042c0:	2a00      	cmp	r2, #0
100042c2:	d00c      	beq.n	100042de <divmod_u64u64_unsafe+0x26>
100042c4:	46bc      	mov	ip, r7
100042c6:	4f0d      	ldr	r7, [pc, #52]	; (100042fc <udiv0+0x1a>)
100042c8:	6638      	str	r0, [r7, #96]	; 0x60
100042ca:	667a      	str	r2, [r7, #100]	; 0x64
100042cc:	2100      	movs	r1, #0
100042ce:	2300      	movs	r3, #0
100042d0:	e7ff      	b.n	100042d2 <divmod_u64u64_unsafe+0x1a>
100042d2:	e7ff      	b.n	100042d4 <divmod_u64u64_unsafe+0x1c>
100042d4:	e7ff      	b.n	100042d6 <divmod_u64u64_unsafe+0x1e>
100042d6:	6f7a      	ldr	r2, [r7, #116]	; 0x74
100042d8:	6f38      	ldr	r0, [r7, #112]	; 0x70
100042da:	4667      	mov	r7, ip
100042dc:	4770      	bx	lr
100042de:	2800      	cmp	r0, #0
100042e0:	d001      	beq.n	100042e6 <udiv0+0x4>

100042e2 <udiv0>:
100042e2:	4807      	ldr	r0, [pc, #28]	; (10004300 <udiv0+0x1e>)
100042e4:	0001      	movs	r1, r0
100042e6:	b500      	push	{lr}
100042e8:	f000 ff2e 	bl	10005148 <____aeabi_ldiv0_veneer>
100042ec:	2200      	movs	r2, #0
100042ee:	2300      	movs	r3, #0
100042f0:	bd00      	pop	{pc}
100042f2:	0002      	movs	r2, r0
100042f4:	000b      	movs	r3, r1
100042f6:	2000      	movs	r0, #0
100042f8:	2100      	movs	r1, #0
100042fa:	4770      	bx	lr
100042fc:	d0000000 	.word	0xd0000000
10004300:	ffffffff 	.word	0xffffffff

10004304 <y64>:
10004304:	2b00      	cmp	r3, #0
10004306:	d000      	beq.n	1000430a <y64+0x6>
10004308:	e0bd      	b.n	10004486 <y64_x48>
1000430a:	0c13      	lsrs	r3, r2, #16
1000430c:	d126      	bne.n	1000435c <y64_x32>
1000430e:	2a00      	cmp	r2, #0
10004310:	d0e7      	beq.n	100042e2 <udiv0>
10004312:	b480      	push	{r7}
10004314:	4f10      	ldr	r7, [pc, #64]	; (10004358 <y64+0x54>)
10004316:	6639      	str	r1, [r7, #96]	; 0x60
10004318:	667a      	str	r2, [r7, #100]	; 0x64
1000431a:	e7ff      	b.n	1000431c <y64+0x18>
1000431c:	e7ff      	b.n	1000431e <y64+0x1a>
1000431e:	b430      	push	{r4, r5}
10004320:	0c04      	lsrs	r4, r0, #16
10004322:	6f7b      	ldr	r3, [r7, #116]	; 0x74
10004324:	6f39      	ldr	r1, [r7, #112]	; 0x70
10004326:	041b      	lsls	r3, r3, #16
10004328:	4323      	orrs	r3, r4
1000432a:	663b      	str	r3, [r7, #96]	; 0x60
1000432c:	e7ff      	b.n	1000432e <y64+0x2a>
1000432e:	e7ff      	b.n	10004330 <y64+0x2c>
10004330:	e7ff      	b.n	10004332 <y64+0x2e>
10004332:	46c0      	nop			; (mov r8, r8)
10004334:	b284      	uxth	r4, r0
10004336:	6f7b      	ldr	r3, [r7, #116]	; 0x74
10004338:	6f3d      	ldr	r5, [r7, #112]	; 0x70
1000433a:	041b      	lsls	r3, r3, #16
1000433c:	4323      	orrs	r3, r4
1000433e:	663b      	str	r3, [r7, #96]	; 0x60
10004340:	e7ff      	b.n	10004342 <y64+0x3e>
10004342:	e7ff      	b.n	10004344 <y64+0x40>
10004344:	46c0      	nop			; (mov r8, r8)
10004346:	2300      	movs	r3, #0
10004348:	042c      	lsls	r4, r5, #16
1000434a:	0c2d      	lsrs	r5, r5, #16
1000434c:	6f7a      	ldr	r2, [r7, #116]	; 0x74
1000434e:	6f38      	ldr	r0, [r7, #112]	; 0x70
10004350:	1900      	adds	r0, r0, r4
10004352:	4169      	adcs	r1, r5
10004354:	bcb0      	pop	{r4, r5, r7}
10004356:	4770      	bx	lr
10004358:	d0000000 	.word	0xd0000000

1000435c <y64_x32>:
1000435c:	b5f0      	push	{r4, r5, r6, r7, lr}
1000435e:	4694      	mov	ip, r2
10004360:	2500      	movs	r5, #0
10004362:	0e14      	lsrs	r4, r2, #24
10004364:	d101      	bne.n	1000436a <y64_x32+0xe>
10004366:	0212      	lsls	r2, r2, #8
10004368:	3508      	adds	r5, #8
1000436a:	0f14      	lsrs	r4, r2, #28
1000436c:	d101      	bne.n	10004372 <y64_x32+0x16>
1000436e:	0112      	lsls	r2, r2, #4
10004370:	3504      	adds	r5, #4
10004372:	0f94      	lsrs	r4, r2, #30
10004374:	d101      	bne.n	1000437a <y64_x32+0x1e>
10004376:	0092      	lsls	r2, r2, #2
10004378:	3502      	adds	r5, #2
1000437a:	0fd4      	lsrs	r4, r2, #31
1000437c:	d101      	bne.n	10004382 <y64_x32+0x26>
1000437e:	0052      	lsls	r2, r2, #1
10004380:	3501      	adds	r5, #1
10004382:	0bd4      	lsrs	r4, r2, #15
10004384:	3401      	adds	r4, #1
10004386:	4f25      	ldr	r7, [pc, #148]	; (1000441c <y64_x32+0xc0>)
10004388:	667c      	str	r4, [r7, #100]	; 0x64
1000438a:	4c25      	ldr	r4, [pc, #148]	; (10004420 <y64_x32+0xc4>)
1000438c:	663c      	str	r4, [r7, #96]	; 0x60
1000438e:	0c0e      	lsrs	r6, r1, #16
10004390:	b293      	uxth	r3, r2
10004392:	e7ff      	b.n	10004394 <y64_x32+0x38>
10004394:	e7ff      	b.n	10004396 <y64_x32+0x3a>
10004396:	e7ff      	b.n	10004398 <y64_x32+0x3c>
10004398:	6f3c      	ldr	r4, [r7, #112]	; 0x70
1000439a:	4366      	muls	r6, r4
1000439c:	0c36      	lsrs	r6, r6, #16
1000439e:	0377      	lsls	r7, r6, #13
100043a0:	46be      	mov	lr, r7
100043a2:	4373      	muls	r3, r6
100043a4:	0bdf      	lsrs	r7, r3, #15
100043a6:	045b      	lsls	r3, r3, #17
100043a8:	1ac0      	subs	r0, r0, r3
100043aa:	41b9      	sbcs	r1, r7
100043ac:	0c13      	lsrs	r3, r2, #16
100043ae:	4373      	muls	r3, r6
100043b0:	18db      	adds	r3, r3, r3
100043b2:	1ac9      	subs	r1, r1, r3
100043b4:	08ce      	lsrs	r6, r1, #3
100043b6:	4366      	muls	r6, r4
100043b8:	0c36      	lsrs	r6, r6, #16
100043ba:	44b6      	add	lr, r6
100043bc:	b293      	uxth	r3, r2
100043be:	4373      	muls	r3, r6
100043c0:	0f1f      	lsrs	r7, r3, #28
100043c2:	011b      	lsls	r3, r3, #4
100043c4:	1ac0      	subs	r0, r0, r3
100043c6:	41b9      	sbcs	r1, r7
100043c8:	0c13      	lsrs	r3, r2, #16
100043ca:	4373      	muls	r3, r6
100043cc:	0b1f      	lsrs	r7, r3, #12
100043ce:	051b      	lsls	r3, r3, #20
100043d0:	1ac0      	subs	r0, r0, r3
100043d2:	41b9      	sbcs	r1, r7
100043d4:	0d86      	lsrs	r6, r0, #22
100043d6:	028f      	lsls	r7, r1, #10
100043d8:	433e      	orrs	r6, r7
100043da:	4366      	muls	r6, r4
100043dc:	0c36      	lsrs	r6, r6, #16
100043de:	2d09      	cmp	r5, #9
100043e0:	db24      	blt.n	1000442c <last0>
100043e2:	0a52      	lsrs	r2, r2, #9
100043e4:	4372      	muls	r2, r6
100043e6:	1a80      	subs	r0, r0, r2
100043e8:	0377      	lsls	r7, r6, #13
100043ea:	0a46      	lsrs	r6, r0, #9
100043ec:	4366      	muls	r6, r4
100043ee:	0c36      	lsrs	r6, r6, #16
100043f0:	2316      	movs	r3, #22
100043f2:	1b5b      	subs	r3, r3, r5
100043f4:	40de      	lsrs	r6, r3
100043f6:	40df      	lsrs	r7, r3
100043f8:	19bf      	adds	r7, r7, r6
100043fa:	4664      	mov	r4, ip
100043fc:	4366      	muls	r6, r4
100043fe:	1b82      	subs	r2, r0, r6
10004400:	4670      	mov	r0, lr
10004402:	3504      	adds	r5, #4
10004404:	3306      	adds	r3, #6
10004406:	0001      	movs	r1, r0
10004408:	40d9      	lsrs	r1, r3
1000440a:	40a8      	lsls	r0, r5
1000440c:	19c0      	adds	r0, r0, r7
1000440e:	d300      	bcc.n	10004412 <y64_x32+0xb6>
10004410:	3101      	adds	r1, #1
10004412:	42a2      	cmp	r2, r4
10004414:	d206      	bcs.n	10004424 <y64_x32+0xc8>
10004416:	2300      	movs	r3, #0
10004418:	bdf0      	pop	{r4, r5, r6, r7, pc}
1000441a:	0000      	.short	0x0000
1000441c:	d0000000 	.word	0xd0000000
10004420:	ffffffff 	.word	0xffffffff
10004424:	1b12      	subs	r2, r2, r4
10004426:	3001      	adds	r0, #1
10004428:	d3f3      	bcc.n	10004412 <y64_x32+0xb6>
1000442a:	e7f1      	b.n	10004410 <y64_x32+0xb4>

1000442c <last0>:
1000442c:	2709      	movs	r7, #9
1000442e:	1b7f      	subs	r7, r7, r5
10004430:	40fe      	lsrs	r6, r7
10004432:	4664      	mov	r4, ip
10004434:	b2a2      	uxth	r2, r4
10004436:	4372      	muls	r2, r6
10004438:	1a80      	subs	r0, r0, r2
1000443a:	d200      	bcs.n	1000443e <last0+0x12>
1000443c:	3901      	subs	r1, #1
1000443e:	0c22      	lsrs	r2, r4, #16
10004440:	4372      	muls	r2, r6
10004442:	0c13      	lsrs	r3, r2, #16
10004444:	0412      	lsls	r2, r2, #16
10004446:	1a82      	subs	r2, r0, r2
10004448:	4199      	sbcs	r1, r3
1000444a:	000b      	movs	r3, r1
1000444c:	4670      	mov	r0, lr
1000444e:	3504      	adds	r5, #4
10004450:	3713      	adds	r7, #19
10004452:	0001      	movs	r1, r0
10004454:	40f9      	lsrs	r1, r7
10004456:	40a8      	lsls	r0, r5
10004458:	1980      	adds	r0, r0, r6
1000445a:	d300      	bcc.n	1000445e <last0+0x32>
1000445c:	3101      	adds	r1, #1
1000445e:	2b00      	cmp	r3, #0
10004460:	d102      	bne.n	10004468 <last0+0x3c>
10004462:	42a2      	cmp	r2, r4
10004464:	d20a      	bcs.n	1000447c <last0+0x50>
10004466:	bdf0      	pop	{r4, r5, r6, r7, pc}
10004468:	3001      	adds	r0, #1
1000446a:	d300      	bcc.n	1000446e <last0+0x42>
1000446c:	3101      	adds	r1, #1
1000446e:	1b12      	subs	r2, r2, r4
10004470:	d2fa      	bcs.n	10004468 <last0+0x3c>
10004472:	3b01      	subs	r3, #1
10004474:	d1f8      	bne.n	10004468 <last0+0x3c>
10004476:	42a2      	cmp	r2, r4
10004478:	d200      	bcs.n	1000447c <last0+0x50>
1000447a:	bdf0      	pop	{r4, r5, r6, r7, pc}
1000447c:	3001      	adds	r0, #1
1000447e:	d300      	bcc.n	10004482 <last0+0x56>
10004480:	3101      	adds	r1, #1
10004482:	1b12      	subs	r2, r2, r4
10004484:	e7f7      	b.n	10004476 <last0+0x4a>

10004486 <y64_x48>:
10004486:	b5f0      	push	{r4, r5, r6, r7, lr}
10004488:	0c1c      	lsrs	r4, r3, #16
1000448a:	d000      	beq.n	1000448e <y64_x48+0x8>
1000448c:	e080      	b.n	10004590 <y64_x64>
1000448e:	b40c      	push	{r2, r3}
10004490:	2500      	movs	r5, #0
10004492:	0a1c      	lsrs	r4, r3, #8
10004494:	d104      	bne.n	100044a0 <y64_x48+0x1a>
10004496:	021b      	lsls	r3, r3, #8
10004498:	0e16      	lsrs	r6, r2, #24
1000449a:	4333      	orrs	r3, r6
1000449c:	0212      	lsls	r2, r2, #8
1000449e:	3508      	adds	r5, #8
100044a0:	0b1c      	lsrs	r4, r3, #12
100044a2:	d104      	bne.n	100044ae <y64_x48+0x28>
100044a4:	011b      	lsls	r3, r3, #4
100044a6:	0f16      	lsrs	r6, r2, #28
100044a8:	4333      	orrs	r3, r6
100044aa:	0112      	lsls	r2, r2, #4
100044ac:	3504      	adds	r5, #4
100044ae:	0b9c      	lsrs	r4, r3, #14
100044b0:	d104      	bne.n	100044bc <y64_x48+0x36>
100044b2:	009b      	lsls	r3, r3, #2
100044b4:	0f96      	lsrs	r6, r2, #30
100044b6:	4333      	orrs	r3, r6
100044b8:	0092      	lsls	r2, r2, #2
100044ba:	3502      	adds	r5, #2
100044bc:	0bdc      	lsrs	r4, r3, #15
100044be:	d102      	bne.n	100044c6 <y64_x48+0x40>
100044c0:	1892      	adds	r2, r2, r2
100044c2:	415b      	adcs	r3, r3
100044c4:	3501      	adds	r5, #1
100044c6:	001c      	movs	r4, r3
100044c8:	1897      	adds	r7, r2, r2
100044ca:	4164      	adcs	r4, r4
100044cc:	3401      	adds	r4, #1
100044ce:	4f46      	ldr	r7, [pc, #280]	; (100045e8 <y64_x64+0x58>)
100044d0:	667c      	str	r4, [r7, #100]	; 0x64
100044d2:	4c46      	ldr	r4, [pc, #280]	; (100045ec <y64_x64+0x5c>)
100044d4:	663c      	str	r4, [r7, #96]	; 0x60
100044d6:	0c0e      	lsrs	r6, r1, #16
100044d8:	e7ff      	b.n	100044da <y64_x48+0x54>
100044da:	e7ff      	b.n	100044dc <y64_x48+0x56>
100044dc:	e7ff      	b.n	100044de <y64_x48+0x58>
100044de:	46c0      	nop			; (mov r8, r8)
100044e0:	6f3c      	ldr	r4, [r7, #112]	; 0x70
100044e2:	4366      	muls	r6, r4
100044e4:	0c36      	lsrs	r6, r6, #16
100044e6:	0377      	lsls	r7, r6, #13
100044e8:	46be      	mov	lr, r7
100044ea:	b297      	uxth	r7, r2
100044ec:	4377      	muls	r7, r6
100044ee:	1bc0      	subs	r0, r0, r7
100044f0:	d200      	bcs.n	100044f4 <y64_x48+0x6e>
100044f2:	3901      	subs	r1, #1
100044f4:	1bc0      	subs	r0, r0, r7
100044f6:	d200      	bcs.n	100044fa <y64_x48+0x74>
100044f8:	3901      	subs	r1, #1
100044fa:	b29f      	uxth	r7, r3
100044fc:	4377      	muls	r7, r6
100044fe:	1bc9      	subs	r1, r1, r7
10004500:	1bc9      	subs	r1, r1, r7
10004502:	0c17      	lsrs	r7, r2, #16
10004504:	4377      	muls	r7, r6
10004506:	047e      	lsls	r6, r7, #17
10004508:	0bff      	lsrs	r7, r7, #15
1000450a:	1b80      	subs	r0, r0, r6
1000450c:	41b9      	sbcs	r1, r7
1000450e:	08ce      	lsrs	r6, r1, #3
10004510:	4366      	muls	r6, r4
10004512:	0c36      	lsrs	r6, r6, #16
10004514:	2d0c      	cmp	r5, #12
10004516:	db33      	blt.n	10004580 <last1>
10004518:	44b6      	add	lr, r6
1000451a:	0b12      	lsrs	r2, r2, #12
1000451c:	051f      	lsls	r7, r3, #20
1000451e:	433a      	orrs	r2, r7
10004520:	0b1b      	lsrs	r3, r3, #12
10004522:	b297      	uxth	r7, r2
10004524:	4377      	muls	r7, r6
10004526:	1bc0      	subs	r0, r0, r7
10004528:	d200      	bcs.n	1000452c <y64_x48+0xa6>
1000452a:	3901      	subs	r1, #1
1000452c:	b29f      	uxth	r7, r3
1000452e:	4377      	muls	r7, r6
10004530:	1bc9      	subs	r1, r1, r7
10004532:	0c17      	lsrs	r7, r2, #16
10004534:	4377      	muls	r7, r6
10004536:	043e      	lsls	r6, r7, #16
10004538:	0c3f      	lsrs	r7, r7, #16
1000453a:	1b80      	subs	r0, r0, r6
1000453c:	41b9      	sbcs	r1, r7
1000453e:	0d86      	lsrs	r6, r0, #22
10004540:	028f      	lsls	r7, r1, #10
10004542:	433e      	orrs	r6, r7
10004544:	4366      	muls	r6, r4
10004546:	2729      	movs	r7, #41	; 0x29
10004548:	1b7f      	subs	r7, r7, r5
1000454a:	40fe      	lsrs	r6, r7
1000454c:	3d0c      	subs	r5, #12
1000454e:	4677      	mov	r7, lr
10004550:	40af      	lsls	r7, r5
10004552:	19bf      	adds	r7, r7, r6
10004554:	bc30      	pop	{r4, r5}
10004556:	b2a2      	uxth	r2, r4
10004558:	b2ab      	uxth	r3, r5
1000455a:	4372      	muls	r2, r6
1000455c:	4373      	muls	r3, r6
1000455e:	1a80      	subs	r0, r0, r2
10004560:	4199      	sbcs	r1, r3
10004562:	0c22      	lsrs	r2, r4, #16
10004564:	4372      	muls	r2, r6
10004566:	0c13      	lsrs	r3, r2, #16
10004568:	0412      	lsls	r2, r2, #16
1000456a:	1a80      	subs	r0, r0, r2
1000456c:	4199      	sbcs	r1, r3
1000456e:	0002      	movs	r2, r0
10004570:	000b      	movs	r3, r1
10004572:	3701      	adds	r7, #1
10004574:	1b00      	subs	r0, r0, r4
10004576:	41a9      	sbcs	r1, r5
10004578:	d2f9      	bcs.n	1000456e <y64_x48+0xe8>
1000457a:	1e78      	subs	r0, r7, #1
1000457c:	2100      	movs	r1, #0
1000457e:	bdf0      	pop	{r4, r5, r6, r7, pc}

10004580 <last1>:
10004580:	270c      	movs	r7, #12
10004582:	1b7f      	subs	r7, r7, r5
10004584:	40fe      	lsrs	r6, r7
10004586:	4677      	mov	r7, lr
10004588:	0b7f      	lsrs	r7, r7, #13
1000458a:	40af      	lsls	r7, r5
1000458c:	19ff      	adds	r7, r7, r7
1000458e:	e7e0      	b.n	10004552 <y64_x48+0xcc>

10004590 <y64_x64>:
10004590:	2400      	movs	r4, #0
10004592:	1c5d      	adds	r5, r3, #1
10004594:	d007      	beq.n	100045a6 <y64_x64+0x16>
10004596:	4f14      	ldr	r7, [pc, #80]	; (100045e8 <y64_x64+0x58>)
10004598:	667d      	str	r5, [r7, #100]	; 0x64
1000459a:	6639      	str	r1, [r7, #96]	; 0x60
1000459c:	e7ff      	b.n	1000459e <y64_x64+0xe>
1000459e:	e7ff      	b.n	100045a0 <y64_x64+0x10>
100045a0:	e7ff      	b.n	100045a2 <y64_x64+0x12>
100045a2:	e7ff      	b.n	100045a4 <y64_x64+0x14>
100045a4:	6f3c      	ldr	r4, [r7, #112]	; 0x70
100045a6:	b295      	uxth	r5, r2
100045a8:	b29e      	uxth	r6, r3
100045aa:	4365      	muls	r5, r4
100045ac:	4366      	muls	r6, r4
100045ae:	1b40      	subs	r0, r0, r5
100045b0:	41b1      	sbcs	r1, r6
100045b2:	0c15      	lsrs	r5, r2, #16
100045b4:	0c1e      	lsrs	r6, r3, #16
100045b6:	4365      	muls	r5, r4
100045b8:	4366      	muls	r6, r4
100045ba:	0436      	lsls	r6, r6, #16
100045bc:	0c2f      	lsrs	r7, r5, #16
100045be:	433e      	orrs	r6, r7
100045c0:	042d      	lsls	r5, r5, #16
100045c2:	1b40      	subs	r0, r0, r5
100045c4:	41b1      	sbcs	r1, r6
100045c6:	4299      	cmp	r1, r3
100045c8:	d204      	bcs.n	100045d4 <y64_x64+0x44>
100045ca:	0002      	movs	r2, r0
100045cc:	000b      	movs	r3, r1
100045ce:	0020      	movs	r0, r4
100045d0:	2100      	movs	r1, #0
100045d2:	bdf0      	pop	{r4, r5, r6, r7, pc}
100045d4:	d101      	bne.n	100045da <y64_x64+0x4a>
100045d6:	4290      	cmp	r0, r2
100045d8:	d3f7      	bcc.n	100045ca <y64_x64+0x3a>
100045da:	1a80      	subs	r0, r0, r2
100045dc:	4199      	sbcs	r1, r3
100045de:	3401      	adds	r4, #1
100045e0:	4299      	cmp	r1, r3
100045e2:	d3f2      	bcc.n	100045ca <y64_x64+0x3a>
100045e4:	e7f6      	b.n	100045d4 <y64_x64+0x44>
100045e6:	0000      	.short	0x0000
100045e8:	d0000000 	.word	0xd0000000
100045ec:	ffffffff 	.word	0xffffffff

100045f0 <__aeabi_double_init>:
100045f0:	2313      	movs	r3, #19
100045f2:	b570      	push	{r4, r5, r6, lr}
100045f4:	781d      	ldrb	r5, [r3, #0]
100045f6:	2d01      	cmp	r5, #1
100045f8:	d010      	beq.n	1000461c <__aeabi_double_init+0x2c>
100045fa:	dd0b      	ble.n	10004614 <__aeabi_double_init+0x24>
100045fc:	4819      	ldr	r0, [pc, #100]	; (10004664 <__aeabi_double_init+0x74>)
100045fe:	f7ff fd67 	bl	100040d0 <rom_data_lookup>
10004602:	4c19      	ldr	r4, [pc, #100]	; (10004668 <__aeabi_double_init+0x78>)
10004604:	0001      	movs	r1, r0
10004606:	2280      	movs	r2, #128	; 0x80
10004608:	0020      	movs	r0, r4
1000460a:	f000 f8b7 	bl	1000477c <__wrap___aeabi_memcpy>
1000460e:	2d02      	cmp	r5, #2
10004610:	d001      	beq.n	10004616 <__aeabi_double_init+0x26>
10004612:	bd70      	pop	{r4, r5, r6, pc}
10004614:	4c14      	ldr	r4, [pc, #80]	; (10004668 <__aeabi_double_init+0x78>)
10004616:	4b15      	ldr	r3, [pc, #84]	; (1000466c <__aeabi_double_init+0x7c>)
10004618:	64a3      	str	r3, [r4, #72]	; 0x48
1000461a:	e7fa      	b.n	10004612 <__aeabi_double_init+0x22>
1000461c:	4b13      	ldr	r3, [pc, #76]	; (1000466c <__aeabi_double_init+0x7c>)
1000461e:	4c12      	ldr	r4, [pc, #72]	; (10004668 <__aeabi_double_init+0x78>)
10004620:	6023      	str	r3, [r4, #0]
10004622:	6063      	str	r3, [r4, #4]
10004624:	60a3      	str	r3, [r4, #8]
10004626:	60e3      	str	r3, [r4, #12]
10004628:	6123      	str	r3, [r4, #16]
1000462a:	6163      	str	r3, [r4, #20]
1000462c:	61a3      	str	r3, [r4, #24]
1000462e:	61e3      	str	r3, [r4, #28]
10004630:	6223      	str	r3, [r4, #32]
10004632:	6263      	str	r3, [r4, #36]	; 0x24
10004634:	62a3      	str	r3, [r4, #40]	; 0x28
10004636:	62e3      	str	r3, [r4, #44]	; 0x2c
10004638:	6323      	str	r3, [r4, #48]	; 0x30
1000463a:	6363      	str	r3, [r4, #52]	; 0x34
1000463c:	63a3      	str	r3, [r4, #56]	; 0x38
1000463e:	63e3      	str	r3, [r4, #60]	; 0x3c
10004640:	6423      	str	r3, [r4, #64]	; 0x40
10004642:	6463      	str	r3, [r4, #68]	; 0x44
10004644:	64a3      	str	r3, [r4, #72]	; 0x48
10004646:	64e3      	str	r3, [r4, #76]	; 0x4c
10004648:	6523      	str	r3, [r4, #80]	; 0x50
1000464a:	6563      	str	r3, [r4, #84]	; 0x54
1000464c:	65a3      	str	r3, [r4, #88]	; 0x58
1000464e:	65e3      	str	r3, [r4, #92]	; 0x5c
10004650:	6623      	str	r3, [r4, #96]	; 0x60
10004652:	6663      	str	r3, [r4, #100]	; 0x64
10004654:	66a3      	str	r3, [r4, #104]	; 0x68
10004656:	66e3      	str	r3, [r4, #108]	; 0x6c
10004658:	6723      	str	r3, [r4, #112]	; 0x70
1000465a:	6763      	str	r3, [r4, #116]	; 0x74
1000465c:	67a3      	str	r3, [r4, #120]	; 0x78
1000465e:	67e3      	str	r3, [r4, #124]	; 0x7c
10004660:	64a3      	str	r3, [r4, #72]	; 0x48
10004662:	e7d6      	b.n	10004612 <__aeabi_double_init+0x22>
10004664:	00004453 	.word	0x00004453
10004668:	20000d30 	.word	0x20000d30
1000466c:	10004671 	.word	0x10004671

10004670 <double_table_shim_on_use_helper>:
10004670:	b507      	push	{r0, r1, r2, lr}
10004672:	4660      	mov	r0, ip
10004674:	8801      	ldrh	r1, [r0, #0]
10004676:	0a0a      	lsrs	r2, r1, #8
10004678:	3002      	adds	r0, #2
1000467a:	2adf      	cmp	r2, #223	; 0xdf
1000467c:	d1fa      	bne.n	10004674 <double_table_shim_on_use_helper+0x4>
1000467e:	b2c9      	uxtb	r1, r1
10004680:	0882      	lsrs	r2, r0, #2
10004682:	d304      	bcc.n	1000468e <double_table_shim_on_use_helper+0x1e>
10004684:	8802      	ldrh	r2, [r0, #0]
10004686:	8840      	ldrh	r0, [r0, #2]
10004688:	0400      	lsls	r0, r0, #16
1000468a:	4310      	orrs	r0, r2
1000468c:	e000      	b.n	10004690 <double_table_shim_on_use_helper+0x20>
1000468e:	6800      	ldr	r0, [r0, #0]
10004690:	4a01      	ldr	r2, [pc, #4]	; (10004698 <double_table_shim_on_use_helper+0x28>)
10004692:	5050      	str	r0, [r2, r1]
10004694:	9003      	str	r0, [sp, #12]
10004696:	bd07      	pop	{r0, r1, r2, pc}
10004698:	20000d30 	.word	0x20000d30

1000469c <__wrap___aeabi_lmul>:
1000469c:	4351      	muls	r1, r2
1000469e:	4343      	muls	r3, r0
100046a0:	18c9      	adds	r1, r1, r3
100046a2:	468c      	mov	ip, r1
100046a4:	0c11      	lsrs	r1, r2, #16
100046a6:	b283      	uxth	r3, r0
100046a8:	434b      	muls	r3, r1
100046aa:	b410      	push	{r4}
100046ac:	0c04      	lsrs	r4, r0, #16
100046ae:	4361      	muls	r1, r4
100046b0:	b292      	uxth	r2, r2
100046b2:	b280      	uxth	r0, r0
100046b4:	4350      	muls	r0, r2
100046b6:	4362      	muls	r2, r4
100046b8:	041c      	lsls	r4, r3, #16
100046ba:	0c1b      	lsrs	r3, r3, #16
100046bc:	1900      	adds	r0, r0, r4
100046be:	bc10      	pop	{r4}
100046c0:	4159      	adcs	r1, r3
100046c2:	0413      	lsls	r3, r2, #16
100046c4:	0c12      	lsrs	r2, r2, #16
100046c6:	18c0      	adds	r0, r0, r3
100046c8:	4151      	adcs	r1, r2
100046ca:	4461      	add	r1, ip
100046cc:	4770      	bx	lr
	...

100046d0 <__aeabi_float_init>:
100046d0:	2313      	movs	r3, #19
100046d2:	b510      	push	{r4, lr}
100046d4:	4812      	ldr	r0, [pc, #72]	; (10004720 <__aeabi_float_init+0x50>)
100046d6:	781c      	ldrb	r4, [r3, #0]
100046d8:	f7ff fcfa 	bl	100040d0 <rom_data_lookup>
100046dc:	0001      	movs	r1, r0
100046de:	2c01      	cmp	r4, #1
100046e0:	d00a      	beq.n	100046f8 <__aeabi_float_init+0x28>
100046e2:	dd03      	ble.n	100046ec <__aeabi_float_init+0x1c>
100046e4:	2280      	movs	r2, #128	; 0x80
100046e6:	480f      	ldr	r0, [pc, #60]	; (10004724 <__aeabi_float_init+0x54>)
100046e8:	f000 f848 	bl	1000477c <__wrap___aeabi_memcpy>
100046ec:	480e      	ldr	r0, [pc, #56]	; (10004728 <__aeabi_float_init+0x58>)
100046ee:	f7ff fce7 	bl	100040c0 <rom_func_lookup>
100046f2:	4b0e      	ldr	r3, [pc, #56]	; (1000472c <__aeabi_float_init+0x5c>)
100046f4:	6018      	str	r0, [r3, #0]
100046f6:	bd10      	pop	{r4, pc}
100046f8:	4c0a      	ldr	r4, [pc, #40]	; (10004724 <__aeabi_float_init+0x54>)
100046fa:	2254      	movs	r2, #84	; 0x54
100046fc:	0020      	movs	r0, r4
100046fe:	f000 f83d 	bl	1000477c <__wrap___aeabi_memcpy>
10004702:	4b0b      	ldr	r3, [pc, #44]	; (10004730 <__aeabi_float_init+0x60>)
10004704:	6563      	str	r3, [r4, #84]	; 0x54
10004706:	65a3      	str	r3, [r4, #88]	; 0x58
10004708:	65e3      	str	r3, [r4, #92]	; 0x5c
1000470a:	6623      	str	r3, [r4, #96]	; 0x60
1000470c:	6663      	str	r3, [r4, #100]	; 0x64
1000470e:	66a3      	str	r3, [r4, #104]	; 0x68
10004710:	66e3      	str	r3, [r4, #108]	; 0x6c
10004712:	6723      	str	r3, [r4, #112]	; 0x70
10004714:	6763      	str	r3, [r4, #116]	; 0x74
10004716:	67a3      	str	r3, [r4, #120]	; 0x78
10004718:	67e3      	str	r3, [r4, #124]	; 0x7c
1000471a:	6223      	str	r3, [r4, #32]
1000471c:	61e3      	str	r3, [r4, #28]
1000471e:	e7e5      	b.n	100046ec <__aeabi_float_init+0x1c>
10004720:	00004653 	.word	0x00004653
10004724:	20000e30 	.word	0x20000e30
10004728:	0000334c 	.word	0x0000334c
1000472c:	2002ab98 	.word	0x2002ab98
10004730:	10004735 	.word	0x10004735

10004734 <float_table_shim_on_use_helper>:
10004734:	b507      	push	{r0, r1, r2, lr}
10004736:	4660      	mov	r0, ip
10004738:	8801      	ldrh	r1, [r0, #0]
1000473a:	0a0a      	lsrs	r2, r1, #8
1000473c:	3002      	adds	r0, #2
1000473e:	2adf      	cmp	r2, #223	; 0xdf
10004740:	d1fa      	bne.n	10004738 <float_table_shim_on_use_helper+0x4>
10004742:	b2c9      	uxtb	r1, r1
10004744:	0882      	lsrs	r2, r0, #2
10004746:	d304      	bcc.n	10004752 <float_table_shim_on_use_helper+0x1e>
10004748:	8802      	ldrh	r2, [r0, #0]
1000474a:	8840      	ldrh	r0, [r0, #2]
1000474c:	0400      	lsls	r0, r0, #16
1000474e:	4310      	orrs	r0, r2
10004750:	e000      	b.n	10004754 <float_table_shim_on_use_helper+0x20>
10004752:	6800      	ldr	r0, [r0, #0]
10004754:	4a01      	ldr	r2, [pc, #4]	; (1000475c <float_table_shim_on_use_helper+0x28>)
10004756:	5050      	str	r0, [r2, r1]
10004758:	9003      	str	r0, [sp, #12]
1000475a:	bd07      	pop	{r0, r1, r2, pc}
1000475c:	20000e30 	.word	0x20000e30

10004760 <__aeabi_mem_init>:
10004760:	4801      	ldr	r0, [pc, #4]	; (10004768 <__aeabi_mem_init+0x8>)
10004762:	2104      	movs	r1, #4
10004764:	4b01      	ldr	r3, [pc, #4]	; (1000476c <__aeabi_mem_init+0xc>)
10004766:	4718      	bx	r3
10004768:	200009b0 	.word	0x200009b0
1000476c:	100040e1 	.word	0x100040e1

10004770 <__wrap_memset>:
10004770:	4b01      	ldr	r3, [pc, #4]	; (10004778 <__wrap_memset+0x8>)
10004772:	681b      	ldr	r3, [r3, #0]
10004774:	4718      	bx	r3
10004776:	0000      	.short	0x0000
10004778:	200009b0 	.word	0x200009b0

1000477c <__wrap___aeabi_memcpy>:
1000477c:	4b01      	ldr	r3, [pc, #4]	; (10004784 <__wrap___aeabi_memcpy+0x8>)
1000477e:	685b      	ldr	r3, [r3, #4]
10004780:	4718      	bx	r3
10004782:	0000      	.short	0x0000
10004784:	200009b0 	.word	0x200009b0

10004788 <stdio_out_chars_crlf.part.0>:
10004788:	b5f0      	push	{r4, r5, r6, r7, lr}
1000478a:	4646      	mov	r6, r8
1000478c:	464f      	mov	r7, r9
1000478e:	46d6      	mov	lr, sl
10004790:	4680      	mov	r8, r0
10004792:	b5c0      	push	{r6, r7, lr}
10004794:	000e      	movs	r6, r1
10004796:	1e17      	subs	r7, r2, #0
10004798:	dd3f      	ble.n	1000481a <stdio_out_chars_crlf.part.0+0x92>
1000479a:	1e4b      	subs	r3, r1, #1
1000479c:	4699      	mov	r9, r3
1000479e:	4b21      	ldr	r3, [pc, #132]	; (10004824 <stdio_out_chars_crlf.part.0+0x9c>)
100047a0:	2501      	movs	r5, #1
100047a2:	2400      	movs	r4, #0
100047a4:	2000      	movs	r0, #0
100047a6:	469a      	mov	sl, r3
100047a8:	e00d      	b.n	100047c6 <stdio_out_chars_crlf.part.0+0x3e>
100047aa:	464b      	mov	r3, r9
100047ac:	5d1b      	ldrb	r3, [r3, r4]
100047ae:	3b0d      	subs	r3, #13
100047b0:	425a      	negs	r2, r3
100047b2:	4153      	adcs	r3, r2
100047b4:	5d32      	ldrb	r2, [r6, r4]
100047b6:	b2db      	uxtb	r3, r3
100047b8:	2a0a      	cmp	r2, #10
100047ba:	d00b      	beq.n	100047d4 <stdio_out_chars_crlf.part.0+0x4c>
100047bc:	002b      	movs	r3, r5
100047be:	3401      	adds	r4, #1
100047c0:	3501      	adds	r5, #1
100047c2:	429f      	cmp	r7, r3
100047c4:	dd1a      	ble.n	100047fc <stdio_out_chars_crlf.part.0+0x74>
100047c6:	2c00      	cmp	r4, #0
100047c8:	d1ef      	bne.n	100047aa <stdio_out_chars_crlf.part.0+0x22>
100047ca:	4643      	mov	r3, r8
100047cc:	5d32      	ldrb	r2, [r6, r4]
100047ce:	7c1b      	ldrb	r3, [r3, #16]
100047d0:	2a0a      	cmp	r2, #10
100047d2:	d1f3      	bne.n	100047bc <stdio_out_chars_crlf.part.0+0x34>
100047d4:	2b00      	cmp	r3, #0
100047d6:	d1f1      	bne.n	100047bc <stdio_out_chars_crlf.part.0+0x34>
100047d8:	42a0      	cmp	r0, r4
100047da:	da04      	bge.n	100047e6 <stdio_out_chars_crlf.part.0+0x5e>
100047dc:	4643      	mov	r3, r8
100047de:	1a21      	subs	r1, r4, r0
100047e0:	681b      	ldr	r3, [r3, #0]
100047e2:	1830      	adds	r0, r6, r0
100047e4:	4798      	blx	r3
100047e6:	4643      	mov	r3, r8
100047e8:	4650      	mov	r0, sl
100047ea:	681b      	ldr	r3, [r3, #0]
100047ec:	2102      	movs	r1, #2
100047ee:	4798      	blx	r3
100047f0:	3401      	adds	r4, #1
100047f2:	0028      	movs	r0, r5
100047f4:	002b      	movs	r3, r5
100047f6:	3501      	adds	r5, #1
100047f8:	429f      	cmp	r7, r3
100047fa:	dce4      	bgt.n	100047c6 <stdio_out_chars_crlf.part.0+0x3e>
100047fc:	4287      	cmp	r7, r0
100047fe:	dd04      	ble.n	1000480a <stdio_out_chars_crlf.part.0+0x82>
10004800:	4643      	mov	r3, r8
10004802:	1a39      	subs	r1, r7, r0
10004804:	681b      	ldr	r3, [r3, #0]
10004806:	1830      	adds	r0, r6, r0
10004808:	4798      	blx	r3
1000480a:	19f6      	adds	r6, r6, r7
1000480c:	3e01      	subs	r6, #1
1000480e:	7833      	ldrb	r3, [r6, #0]
10004810:	3b0d      	subs	r3, #13
10004812:	425a      	negs	r2, r3
10004814:	4153      	adcs	r3, r2
10004816:	4642      	mov	r2, r8
10004818:	7413      	strb	r3, [r2, #16]
1000481a:	bce0      	pop	{r5, r6, r7}
1000481c:	46ba      	mov	sl, r7
1000481e:	46b1      	mov	r9, r6
10004820:	46a8      	mov	r8, r5
10004822:	bdf0      	pop	{r4, r5, r6, r7, pc}
10004824:	100087f4 	.word	0x100087f4

10004828 <stdio_put_string.isra.0>:
10004828:	b5f0      	push	{r4, r5, r6, r7, lr}
1000482a:	4657      	mov	r7, sl
1000482c:	4645      	mov	r5, r8
1000482e:	46de      	mov	lr, fp
10004830:	464e      	mov	r6, r9
10004832:	23d0      	movs	r3, #208	; 0xd0
10004834:	b5e0      	push	{r5, r6, r7, lr}
10004836:	061b      	lsls	r3, r3, #24
10004838:	681c      	ldr	r4, [r3, #0]
1000483a:	4b36      	ldr	r3, [pc, #216]	; (10004914 <stdio_put_string.isra.0+0xec>)
1000483c:	b083      	sub	sp, #12
1000483e:	0007      	movs	r7, r0
10004840:	000d      	movs	r5, r1
10004842:	0018      	movs	r0, r3
10004844:	a901      	add	r1, sp, #4
10004846:	4690      	mov	r8, r2
10004848:	469a      	mov	sl, r3
1000484a:	f000 fc9d 	bl	10005188 <__mutex_try_enter_veneer>
1000484e:	4681      	mov	r9, r0
10004850:	2800      	cmp	r0, #0
10004852:	d108      	bne.n	10004866 <stdio_put_string.isra.0+0x3e>
10004854:	9b01      	ldr	r3, [sp, #4]
10004856:	b264      	sxtb	r4, r4
10004858:	429c      	cmp	r4, r3
1000485a:	d004      	beq.n	10004866 <stdio_put_string.isra.0+0x3e>
1000485c:	4650      	mov	r0, sl
1000485e:	f000 fcab 	bl	100051b8 <__mutex_enter_blocking_veneer>
10004862:	2301      	movs	r3, #1
10004864:	4699      	mov	r9, r3
10004866:	1c6b      	adds	r3, r5, #1
10004868:	d103      	bne.n	10004872 <stdio_put_string.isra.0+0x4a>
1000486a:	0038      	movs	r0, r7
1000486c:	f000 fc34 	bl	100050d8 <strlen>
10004870:	0005      	movs	r5, r0
10004872:	4b29      	ldr	r3, [pc, #164]	; (10004918 <stdio_put_string.isra.0+0xf0>)
10004874:	681c      	ldr	r4, [r3, #0]
10004876:	2c00      	cmp	r4, #0
10004878:	d02f      	beq.n	100048da <stdio_put_string.isra.0+0xb2>
1000487a:	230a      	movs	r3, #10
1000487c:	4e27      	ldr	r6, [pc, #156]	; (1000491c <stdio_put_string.isra.0+0xf4>)
1000487e:	469b      	mov	fp, r3
10004880:	e002      	b.n	10004888 <stdio_put_string.isra.0+0x60>
10004882:	68e4      	ldr	r4, [r4, #12]
10004884:	2c00      	cmp	r4, #0
10004886:	d028      	beq.n	100048da <stdio_put_string.isra.0+0xb2>
10004888:	6822      	ldr	r2, [r4, #0]
1000488a:	2a00      	cmp	r2, #0
1000488c:	d0f9      	beq.n	10004882 <stdio_put_string.isra.0+0x5a>
1000488e:	6833      	ldr	r3, [r6, #0]
10004890:	2b00      	cmp	r3, #0
10004892:	d001      	beq.n	10004898 <stdio_put_string.isra.0+0x70>
10004894:	42a3      	cmp	r3, r4
10004896:	d1f4      	bne.n	10004882 <stdio_put_string.isra.0+0x5a>
10004898:	7c63      	ldrb	r3, [r4, #17]
1000489a:	2b00      	cmp	r3, #0
1000489c:	d027      	beq.n	100048ee <stdio_put_string.isra.0+0xc6>
1000489e:	002a      	movs	r2, r5
100048a0:	0039      	movs	r1, r7
100048a2:	0020      	movs	r0, r4
100048a4:	f7ff ff70 	bl	10004788 <stdio_out_chars_crlf.part.0>
100048a8:	4643      	mov	r3, r8
100048aa:	2b00      	cmp	r3, #0
100048ac:	d0e9      	beq.n	10004882 <stdio_put_string.isra.0+0x5a>
100048ae:	466b      	mov	r3, sp
100048b0:	465a      	mov	r2, fp
100048b2:	711a      	strb	r2, [r3, #4]
100048b4:	7c63      	ldrb	r3, [r4, #17]
100048b6:	2b00      	cmp	r3, #0
100048b8:	d01d      	beq.n	100048f6 <stdio_put_string.isra.0+0xce>
100048ba:	7c23      	ldrb	r3, [r4, #16]
100048bc:	2b00      	cmp	r3, #0
100048be:	d023      	beq.n	10004908 <stdio_put_string.isra.0+0xe0>
100048c0:	2101      	movs	r1, #1
100048c2:	6823      	ldr	r3, [r4, #0]
100048c4:	a801      	add	r0, sp, #4
100048c6:	4798      	blx	r3
100048c8:	466b      	mov	r3, sp
100048ca:	791b      	ldrb	r3, [r3, #4]
100048cc:	3b0d      	subs	r3, #13
100048ce:	425a      	negs	r2, r3
100048d0:	4153      	adcs	r3, r2
100048d2:	7423      	strb	r3, [r4, #16]
100048d4:	68e4      	ldr	r4, [r4, #12]
100048d6:	2c00      	cmp	r4, #0
100048d8:	d1d6      	bne.n	10004888 <stdio_put_string.isra.0+0x60>
100048da:	464b      	mov	r3, r9
100048dc:	2b00      	cmp	r3, #0
100048de:	d10f      	bne.n	10004900 <stdio_put_string.isra.0+0xd8>
100048e0:	b003      	add	sp, #12
100048e2:	bcf0      	pop	{r4, r5, r6, r7}
100048e4:	46bb      	mov	fp, r7
100048e6:	46b2      	mov	sl, r6
100048e8:	46a9      	mov	r9, r5
100048ea:	46a0      	mov	r8, r4
100048ec:	bdf0      	pop	{r4, r5, r6, r7, pc}
100048ee:	0029      	movs	r1, r5
100048f0:	0038      	movs	r0, r7
100048f2:	4790      	blx	r2
100048f4:	e7d8      	b.n	100048a8 <stdio_put_string.isra.0+0x80>
100048f6:	2101      	movs	r1, #1
100048f8:	6823      	ldr	r3, [r4, #0]
100048fa:	a801      	add	r0, sp, #4
100048fc:	4798      	blx	r3
100048fe:	e7c0      	b.n	10004882 <stdio_put_string.isra.0+0x5a>
10004900:	4650      	mov	r0, sl
10004902:	f000 fc19 	bl	10005138 <__mutex_exit_veneer>
10004906:	e7eb      	b.n	100048e0 <stdio_put_string.isra.0+0xb8>
10004908:	2102      	movs	r1, #2
1000490a:	4805      	ldr	r0, [pc, #20]	; (10004920 <stdio_put_string.isra.0+0xf8>)
1000490c:	6823      	ldr	r3, [r4, #0]
1000490e:	4798      	blx	r3
10004910:	e7da      	b.n	100048c8 <stdio_put_string.isra.0+0xa0>
10004912:	46c0      	nop			; (mov r8, r8)
10004914:	200009e4 	.word	0x200009e4
10004918:	20027b78 	.word	0x20027b78
1000491c:	20027b7c 	.word	0x20027b7c
10004920:	100087f4 	.word	0x100087f4

10004924 <__wrap_putchar>:
10004924:	b510      	push	{r4, lr}
10004926:	b082      	sub	sp, #8
10004928:	466b      	mov	r3, sp
1000492a:	0004      	movs	r4, r0
1000492c:	2200      	movs	r2, #0
1000492e:	1dd8      	adds	r0, r3, #7
10004930:	2101      	movs	r1, #1
10004932:	7004      	strb	r4, [r0, #0]
10004934:	f7ff ff78 	bl	10004828 <stdio_put_string.isra.0>
10004938:	0020      	movs	r0, r4
1000493a:	b002      	add	sp, #8
1000493c:	bd10      	pop	{r4, pc}
1000493e:	46c0      	nop			; (mov r8, r8)

10004940 <__wrap_puts>:
10004940:	b570      	push	{r4, r5, r6, lr}
10004942:	0004      	movs	r4, r0
10004944:	f000 fbc8 	bl	100050d8 <strlen>
10004948:	2201      	movs	r2, #1
1000494a:	0001      	movs	r1, r0
1000494c:	0005      	movs	r5, r0
1000494e:	0020      	movs	r0, r4
10004950:	f7ff ff6a 	bl	10004828 <stdio_put_string.isra.0>
10004954:	4b08      	ldr	r3, [pc, #32]	; (10004978 <__wrap_puts+0x38>)
10004956:	681c      	ldr	r4, [r3, #0]
10004958:	2c00      	cmp	r4, #0
1000495a:	d006      	beq.n	1000496a <__wrap_puts+0x2a>
1000495c:	6863      	ldr	r3, [r4, #4]
1000495e:	2b00      	cmp	r3, #0
10004960:	d005      	beq.n	1000496e <__wrap_puts+0x2e>
10004962:	4798      	blx	r3
10004964:	68e4      	ldr	r4, [r4, #12]
10004966:	2c00      	cmp	r4, #0
10004968:	d1f8      	bne.n	1000495c <__wrap_puts+0x1c>
1000496a:	0028      	movs	r0, r5
1000496c:	bd70      	pop	{r4, r5, r6, pc}
1000496e:	68e4      	ldr	r4, [r4, #12]
10004970:	2c00      	cmp	r4, #0
10004972:	d1f3      	bne.n	1000495c <__wrap_puts+0x1c>
10004974:	e7f9      	b.n	1000496a <__wrap_puts+0x2a>
10004976:	46c0      	nop			; (mov r8, r8)
10004978:	20027b78 	.word	0x20027b78

1000497c <stdio_set_driver_enabled>:
1000497c:	4a0d      	ldr	r2, [pc, #52]	; (100049b4 <stdio_set_driver_enabled+0x38>)
1000497e:	6813      	ldr	r3, [r2, #0]
10004980:	2b00      	cmp	r3, #0
10004982:	d013      	beq.n	100049ac <stdio_set_driver_enabled+0x30>
10004984:	4283      	cmp	r3, r0
10004986:	d102      	bne.n	1000498e <stdio_set_driver_enabled+0x12>
10004988:	e009      	b.n	1000499e <stdio_set_driver_enabled+0x22>
1000498a:	4298      	cmp	r0, r3
1000498c:	d008      	beq.n	100049a0 <stdio_set_driver_enabled+0x24>
1000498e:	001a      	movs	r2, r3
10004990:	68db      	ldr	r3, [r3, #12]
10004992:	2b00      	cmp	r3, #0
10004994:	d1f9      	bne.n	1000498a <stdio_set_driver_enabled+0xe>
10004996:	2900      	cmp	r1, #0
10004998:	d000      	beq.n	1000499c <stdio_set_driver_enabled+0x20>
1000499a:	60d0      	str	r0, [r2, #12]
1000499c:	4770      	bx	lr
1000499e:	001a      	movs	r2, r3
100049a0:	2900      	cmp	r1, #0
100049a2:	d1fb      	bne.n	1000499c <stdio_set_driver_enabled+0x20>
100049a4:	68db      	ldr	r3, [r3, #12]
100049a6:	60d3      	str	r3, [r2, #12]
100049a8:	60c1      	str	r1, [r0, #12]
100049aa:	e7f7      	b.n	1000499c <stdio_set_driver_enabled+0x20>
100049ac:	2900      	cmp	r1, #0
100049ae:	d0f5      	beq.n	1000499c <stdio_set_driver_enabled+0x20>
100049b0:	6010      	str	r0, [r2, #0]
100049b2:	e7f3      	b.n	1000499c <stdio_set_driver_enabled+0x20>
100049b4:	20027b78 	.word	0x20027b78

100049b8 <stdio_init_all>:
100049b8:	b510      	push	{r4, lr}
100049ba:	f000 f843 	bl	10004a44 <stdio_uart_init>
100049be:	bd10      	pop	{r4, pc}

100049c0 <stdio_uart_out_chars>:
100049c0:	b5f0      	push	{r4, r5, r6, r7, lr}
100049c2:	1e0d      	subs	r5, r1, #0
100049c4:	dd15      	ble.n	100049f2 <stdio_uart_out_chars+0x32>
100049c6:	4b0e      	ldr	r3, [pc, #56]	; (10004a00 <stdio_uart_out_chars+0x40>)
100049c8:	270d      	movs	r7, #13
100049ca:	681a      	ldr	r2, [r3, #0]
100049cc:	4b0d      	ldr	r3, [pc, #52]	; (10004a04 <stdio_uart_out_chars+0x44>)
100049ce:	1945      	adds	r5, r0, r5
100049d0:	18d3      	adds	r3, r2, r3
100049d2:	4259      	negs	r1, r3
100049d4:	414b      	adcs	r3, r1
100049d6:	490c      	ldr	r1, [pc, #48]	; (10004a08 <stdio_uart_out_chars+0x48>)
100049d8:	005b      	lsls	r3, r3, #1
100049da:	5e5e      	ldrsh	r6, [r3, r1]
100049dc:	2120      	movs	r1, #32
100049de:	7804      	ldrb	r4, [r0, #0]
100049e0:	42a6      	cmp	r6, r4
100049e2:	d007      	beq.n	100049f4 <stdio_uart_out_chars+0x34>
100049e4:	6993      	ldr	r3, [r2, #24]
100049e6:	4219      	tst	r1, r3
100049e8:	d1fc      	bne.n	100049e4 <stdio_uart_out_chars+0x24>
100049ea:	3001      	adds	r0, #1
100049ec:	6014      	str	r4, [r2, #0]
100049ee:	42a8      	cmp	r0, r5
100049f0:	d1f5      	bne.n	100049de <stdio_uart_out_chars+0x1e>
100049f2:	bdf0      	pop	{r4, r5, r6, r7, pc}
100049f4:	6993      	ldr	r3, [r2, #24]
100049f6:	4219      	tst	r1, r3
100049f8:	d1fc      	bne.n	100049f4 <stdio_uart_out_chars+0x34>
100049fa:	6017      	str	r7, [r2, #0]
100049fc:	e7f2      	b.n	100049e4 <stdio_uart_out_chars+0x24>
100049fe:	46c0      	nop			; (mov r8, r8)
10004a00:	2002abb4 	.word	0x2002abb4
10004a04:	bffc8000 	.word	0xbffc8000
10004a08:	2002abb0 	.word	0x2002abb0

10004a0c <stdio_uart_in_chars>:
10004a0c:	b530      	push	{r4, r5, lr}
10004a0e:	0004      	movs	r4, r0
10004a10:	1e0d      	subs	r5, r1, #0
10004a12:	dd12      	ble.n	10004a3a <stdio_uart_in_chars+0x2e>
10004a14:	2000      	movs	r0, #0
10004a16:	2110      	movs	r1, #16
10004a18:	4b09      	ldr	r3, [pc, #36]	; (10004a40 <stdio_uart_in_chars+0x34>)
10004a1a:	3c01      	subs	r4, #1
10004a1c:	681a      	ldr	r2, [r3, #0]
10004a1e:	6993      	ldr	r3, [r2, #24]
10004a20:	4219      	tst	r1, r3
10004a22:	d108      	bne.n	10004a36 <stdio_uart_in_chars+0x2a>
10004a24:	3001      	adds	r0, #1
10004a26:	6993      	ldr	r3, [r2, #24]
10004a28:	4219      	tst	r1, r3
10004a2a:	d1fc      	bne.n	10004a26 <stdio_uart_in_chars+0x1a>
10004a2c:	6813      	ldr	r3, [r2, #0]
10004a2e:	5423      	strb	r3, [r4, r0]
10004a30:	4285      	cmp	r5, r0
10004a32:	d1f4      	bne.n	10004a1e <stdio_uart_in_chars+0x12>
10004a34:	bd30      	pop	{r4, r5, pc}
10004a36:	2800      	cmp	r0, #0
10004a38:	d1fc      	bne.n	10004a34 <stdio_uart_in_chars+0x28>
10004a3a:	2003      	movs	r0, #3
10004a3c:	4240      	negs	r0, r0
10004a3e:	e7f9      	b.n	10004a34 <stdio_uart_in_chars+0x28>
10004a40:	2002abb4 	.word	0x2002abb4

10004a44 <stdio_uart_init>:
10004a44:	21e1      	movs	r1, #225	; 0xe1
10004a46:	b510      	push	{r4, lr}
10004a48:	4b0b      	ldr	r3, [pc, #44]	; (10004a78 <stdio_uart_init+0x34>)
10004a4a:	480c      	ldr	r0, [pc, #48]	; (10004a7c <stdio_uart_init+0x38>)
10004a4c:	781b      	ldrb	r3, [r3, #0]
10004a4e:	4b0c      	ldr	r3, [pc, #48]	; (10004a80 <stdio_uart_init+0x3c>)
10004a50:	0249      	lsls	r1, r1, #9
10004a52:	781b      	ldrb	r3, [r3, #0]
10004a54:	4b0b      	ldr	r3, [pc, #44]	; (10004a84 <stdio_uart_init+0x40>)
10004a56:	6018      	str	r0, [r3, #0]
10004a58:	f7fd ff3c 	bl	100028d4 <uart_init>
10004a5c:	2102      	movs	r1, #2
10004a5e:	2000      	movs	r0, #0
10004a60:	f7fd fde4 	bl	1000262c <gpio_set_function>
10004a64:	2102      	movs	r1, #2
10004a66:	2001      	movs	r0, #1
10004a68:	f7fd fde0 	bl	1000262c <gpio_set_function>
10004a6c:	2101      	movs	r1, #1
10004a6e:	4806      	ldr	r0, [pc, #24]	; (10004a88 <stdio_uart_init+0x44>)
10004a70:	f7ff ff84 	bl	1000497c <stdio_set_driver_enabled>
10004a74:	bd10      	pop	{r4, pc}
10004a76:	46c0      	nop			; (mov r8, r8)
10004a78:	100088ac 	.word	0x100088ac
10004a7c:	40034000 	.word	0x40034000
10004a80:	100088b0 	.word	0x100088b0
10004a84:	2002abb4 	.word	0x2002abb4
10004a88:	200009c0 	.word	0x200009c0

10004a8c <core1_trampoline>:
10004a8c:	bd03      	pop	{r0, r1, pc}
10004a8e:	46c0      	nop			; (mov r8, r8)

10004a90 <core1_wrapper>:
10004a90:	b510      	push	{r4, lr}
10004a92:	0004      	movs	r4, r0
10004a94:	f7ff fa54 	bl	10003f40 <irq_init_priorities>
10004a98:	47a0      	blx	r4
10004a9a:	bd10      	pop	{r4, pc}

10004a9c <multicore_fifo_push_blocking>:
10004a9c:	22d0      	movs	r2, #208	; 0xd0
10004a9e:	2102      	movs	r1, #2
10004aa0:	0612      	lsls	r2, r2, #24
10004aa2:	6d13      	ldr	r3, [r2, #80]	; 0x50
10004aa4:	4219      	tst	r1, r3
10004aa6:	d0fc      	beq.n	10004aa2 <multicore_fifo_push_blocking+0x6>
10004aa8:	6550      	str	r0, [r2, #84]	; 0x54
10004aaa:	bf40      	sev
10004aac:	4770      	bx	lr
10004aae:	46c0      	nop			; (mov r8, r8)

10004ab0 <multicore_fifo_pop_blocking>:
10004ab0:	22d0      	movs	r2, #208	; 0xd0
10004ab2:	0612      	lsls	r2, r2, #24
10004ab4:	6d13      	ldr	r3, [r2, #80]	; 0x50
10004ab6:	07db      	lsls	r3, r3, #31
10004ab8:	d404      	bmi.n	10004ac4 <multicore_fifo_pop_blocking+0x14>
10004aba:	2101      	movs	r1, #1
10004abc:	bf20      	wfe
10004abe:	6d13      	ldr	r3, [r2, #80]	; 0x50
10004ac0:	4219      	tst	r1, r3
10004ac2:	d0fb      	beq.n	10004abc <multicore_fifo_pop_blocking+0xc>
10004ac4:	23d0      	movs	r3, #208	; 0xd0
10004ac6:	061b      	lsls	r3, r3, #24
10004ac8:	6d98      	ldr	r0, [r3, #88]	; 0x58
10004aca:	4770      	bx	lr

10004acc <multicore_launch_core1_raw>:
10004acc:	b570      	push	{r4, r5, r6, lr}
10004ace:	2301      	movs	r3, #1
10004ad0:	2500      	movs	r5, #0
10004ad2:	2400      	movs	r4, #0
10004ad4:	b086      	sub	sp, #24
10004ad6:	9005      	str	r0, [sp, #20]
10004ad8:	200f      	movs	r0, #15
10004ada:	9302      	str	r3, [sp, #8]
10004adc:	9400      	str	r4, [sp, #0]
10004ade:	9501      	str	r5, [sp, #4]
10004ae0:	9203      	str	r2, [sp, #12]
10004ae2:	9104      	str	r1, [sp, #16]
10004ae4:	f7ff f8ba 	bl	10003c5c <irq_is_enabled>
10004ae8:	2100      	movs	r1, #0
10004aea:	0005      	movs	r5, r0
10004aec:	200f      	movs	r0, #15
10004aee:	f7ff f8a3 	bl	10003c38 <irq_set_enabled>
10004af2:	23d0      	movs	r3, #208	; 0xd0
10004af4:	2600      	movs	r6, #0
10004af6:	2101      	movs	r1, #1
10004af8:	2002      	movs	r0, #2
10004afa:	061b      	lsls	r3, r3, #24
10004afc:	2c00      	cmp	r4, #0
10004afe:	d014      	beq.n	10004b2a <multicore_launch_core1_raw+0x5e>
10004b00:	6d1a      	ldr	r2, [r3, #80]	; 0x50
10004b02:	4210      	tst	r0, r2
10004b04:	d0fc      	beq.n	10004b00 <multicore_launch_core1_raw+0x34>
10004b06:	655c      	str	r4, [r3, #84]	; 0x54
10004b08:	bf40      	sev
10004b0a:	6d1a      	ldr	r2, [r3, #80]	; 0x50
10004b0c:	4211      	tst	r1, r2
10004b0e:	d103      	bne.n	10004b18 <multicore_launch_core1_raw+0x4c>
10004b10:	bf20      	wfe
10004b12:	6d1a      	ldr	r2, [r3, #80]	; 0x50
10004b14:	4211      	tst	r1, r2
10004b16:	d0fb      	beq.n	10004b10 <multicore_launch_core1_raw+0x44>
10004b18:	6d9a      	ldr	r2, [r3, #88]	; 0x58
10004b1a:	42a2      	cmp	r2, r4
10004b1c:	d00a      	beq.n	10004b34 <multicore_launch_core1_raw+0x68>
10004b1e:	2600      	movs	r6, #0
10004b20:	466c      	mov	r4, sp
10004b22:	00b2      	lsls	r2, r6, #2
10004b24:	58a4      	ldr	r4, [r4, r2]
10004b26:	e7e9      	b.n	10004afc <multicore_launch_core1_raw+0x30>
10004b28:	6d9a      	ldr	r2, [r3, #88]	; 0x58
10004b2a:	6d1a      	ldr	r2, [r3, #80]	; 0x50
10004b2c:	4211      	tst	r1, r2
10004b2e:	d1fb      	bne.n	10004b28 <multicore_launch_core1_raw+0x5c>
10004b30:	bf40      	sev
10004b32:	e7e5      	b.n	10004b00 <multicore_launch_core1_raw+0x34>
10004b34:	3601      	adds	r6, #1
10004b36:	2e05      	cmp	r6, #5
10004b38:	d9f2      	bls.n	10004b20 <multicore_launch_core1_raw+0x54>
10004b3a:	0029      	movs	r1, r5
10004b3c:	200f      	movs	r0, #15
10004b3e:	f7ff f87b 	bl	10003c38 <irq_set_enabled>
10004b42:	b006      	add	sp, #24
10004b44:	bd70      	pop	{r4, r5, r6, pc}
10004b46:	46c0      	nop			; (mov r8, r8)

10004b48 <multicore_launch_core1>:
10004b48:	4b0b      	ldr	r3, [pc, #44]	; (10004b78 <multicore_launch_core1+0x30>)
10004b4a:	4a0c      	ldr	r2, [pc, #48]	; (10004b7c <multicore_launch_core1+0x34>)
10004b4c:	b510      	push	{r4, lr}
10004b4e:	4293      	cmp	r3, r2
10004b50:	d201      	bcs.n	10004b56 <multicore_launch_core1+0xe>
10004b52:	2301      	movs	r3, #1
10004b54:	425b      	negs	r3, r3
10004b56:	0019      	movs	r1, r3
10004b58:	4a09      	ldr	r2, [pc, #36]	; (10004b80 <multicore_launch_core1+0x38>)
10004b5a:	5098      	str	r0, [r3, r2]
10004b5c:	3204      	adds	r2, #4
10004b5e:	509b      	str	r3, [r3, r2]
10004b60:	4a08      	ldr	r2, [pc, #32]	; (10004b84 <multicore_launch_core1+0x3c>)
10004b62:	4b09      	ldr	r3, [pc, #36]	; (10004b88 <multicore_launch_core1+0x40>)
10004b64:	4809      	ldr	r0, [pc, #36]	; (10004b8c <multicore_launch_core1+0x44>)
10004b66:	50ca      	str	r2, [r1, r3]
10004b68:	4b09      	ldr	r3, [pc, #36]	; (10004b90 <multicore_launch_core1+0x48>)
10004b6a:	689a      	ldr	r2, [r3, #8]
10004b6c:	4b04      	ldr	r3, [pc, #16]	; (10004b80 <multicore_launch_core1+0x38>)
10004b6e:	469c      	mov	ip, r3
10004b70:	4461      	add	r1, ip
10004b72:	f7ff ffab 	bl	10004acc <multicore_launch_core1_raw>
10004b76:	bd10      	pop	{r4, pc}
10004b78:	20040800 	.word	0x20040800
10004b7c:	20040000 	.word	0x20040000
10004b80:	000007f4 	.word	0x000007f4
10004b84:	10004a91 	.word	0x10004a91
10004b88:	000007fc 	.word	0x000007fc
10004b8c:	10004a8d 	.word	0x10004a8d
10004b90:	e000ed00 	.word	0xe000ed00

10004b94 <adc_init>:
10004b94:	2301      	movs	r3, #1
10004b96:	2101      	movs	r1, #1
10004b98:	4a08      	ldr	r2, [pc, #32]	; (10004bbc <adc_init+0x28>)
10004b9a:	6013      	str	r3, [r2, #0]
10004b9c:	4a08      	ldr	r2, [pc, #32]	; (10004bc0 <adc_init+0x2c>)
10004b9e:	6013      	str	r3, [r2, #0]
10004ba0:	4a08      	ldr	r2, [pc, #32]	; (10004bc4 <adc_init+0x30>)
10004ba2:	0008      	movs	r0, r1
10004ba4:	6893      	ldr	r3, [r2, #8]
10004ba6:	4398      	bics	r0, r3
10004ba8:	d1fb      	bne.n	10004ba2 <adc_init+0xe>
10004baa:	4a07      	ldr	r2, [pc, #28]	; (10004bc8 <adc_init+0x34>)
10004bac:	6011      	str	r1, [r2, #0]
10004bae:	2180      	movs	r1, #128	; 0x80
10004bb0:	0049      	lsls	r1, r1, #1
10004bb2:	6813      	ldr	r3, [r2, #0]
10004bb4:	420b      	tst	r3, r1
10004bb6:	d0fc      	beq.n	10004bb2 <adc_init+0x1e>
10004bb8:	4770      	bx	lr
10004bba:	46c0      	nop			; (mov r8, r8)
10004bbc:	4000e000 	.word	0x4000e000
10004bc0:	4000f000 	.word	0x4000f000
10004bc4:	4000c000 	.word	0x4000c000
10004bc8:	4004c000 	.word	0x4004c000

10004bcc <pio_claim_unused_sm>:
10004bcc:	4b0b      	ldr	r3, [pc, #44]	; (10004bfc <pio_claim_unused_sm+0x30>)
10004bce:	b510      	push	{r4, lr}
10004bd0:	469c      	mov	ip, r3
10004bd2:	4460      	add	r0, ip
10004bd4:	4243      	negs	r3, r0
10004bd6:	4158      	adcs	r0, r3
10004bd8:	4a09      	ldr	r2, [pc, #36]	; (10004c00 <pio_claim_unused_sm+0x34>)
10004bda:	0084      	lsls	r4, r0, #2
10004bdc:	b082      	sub	sp, #8
10004bde:	9200      	str	r2, [sp, #0]
10004be0:	4808      	ldr	r0, [pc, #32]	; (10004c04 <pio_claim_unused_sm+0x38>)
10004be2:	0022      	movs	r2, r4
10004be4:	1ce3      	adds	r3, r4, #3
10004be6:	f7fd fe05 	bl	100027f4 <hw_claim_unused_from_range>
10004bea:	4284      	cmp	r4, r0
10004bec:	dc02      	bgt.n	10004bf4 <pio_claim_unused_sm+0x28>
10004bee:	1b00      	subs	r0, r0, r4
10004bf0:	b002      	add	sp, #8
10004bf2:	bd10      	pop	{r4, pc}
10004bf4:	2001      	movs	r0, #1
10004bf6:	4240      	negs	r0, r0
10004bf8:	e7fa      	b.n	10004bf0 <pio_claim_unused_sm+0x24>
10004bfa:	46c0      	nop			; (mov r8, r8)
10004bfc:	afd00000 	.word	0xafd00000
10004c00:	10008838 	.word	0x10008838
10004c04:	2002abc4 	.word	0x2002abc4

10004c08 <pio_add_program>:
10004c08:	b5f0      	push	{r4, r5, r6, r7, lr}
10004c0a:	46d6      	mov	lr, sl
10004c0c:	464f      	mov	r7, r9
10004c0e:	4646      	mov	r6, r8
10004c10:	4688      	mov	r8, r1
10004c12:	b5c0      	push	{r6, r7, lr}
10004c14:	2405      	movs	r4, #5
10004c16:	0006      	movs	r6, r0
10004c18:	f7fd fdb4 	bl	10002784 <hw_claim_lock>
10004c1c:	4643      	mov	r3, r8
10004c1e:	791f      	ldrb	r7, [r3, #4]
10004c20:	571c      	ldrsb	r4, [r3, r4]
10004c22:	4b28      	ldr	r3, [pc, #160]	; (10004cc4 <pio_add_program+0xbc>)
10004c24:	4681      	mov	r9, r0
10004c26:	18f0      	adds	r0, r6, r3
10004c28:	4243      	negs	r3, r0
10004c2a:	4158      	adcs	r0, r3
10004c2c:	4b26      	ldr	r3, [pc, #152]	; (10004cc8 <pio_add_program+0xc0>)
10004c2e:	469a      	mov	sl, r3
10004c30:	0083      	lsls	r3, r0, #2
10004c32:	469c      	mov	ip, r3
10004c34:	4653      	mov	r3, sl
10004c36:	4662      	mov	r2, ip
10004c38:	5898      	ldr	r0, [r3, r2]
10004c3a:	2201      	movs	r2, #1
10004c3c:	2320      	movs	r3, #32
10004c3e:	40ba      	lsls	r2, r7
10004c40:	1bdb      	subs	r3, r3, r7
10004c42:	3a01      	subs	r2, #1
10004c44:	2c00      	cmp	r4, #0
10004c46:	db32      	blt.n	10004cae <pio_add_program+0xa6>
10004c48:	429c      	cmp	r4, r3
10004c4a:	dc2d      	bgt.n	10004ca8 <pio_add_program+0xa0>
10004c4c:	40a2      	lsls	r2, r4
10004c4e:	0015      	movs	r5, r2
10004c50:	4210      	tst	r0, r2
10004c52:	d129      	bne.n	10004ca8 <pio_add_program+0xa0>
10004c54:	2f00      	cmp	r7, #0
10004c56:	d01a      	beq.n	10004c8e <pio_add_program+0x86>
10004c58:	4643      	mov	r3, r8
10004c5a:	785a      	ldrb	r2, [r3, #1]
10004c5c:	7819      	ldrb	r1, [r3, #0]
10004c5e:	0212      	lsls	r2, r2, #8
10004c60:	4311      	orrs	r1, r2
10004c62:	4642      	mov	r2, r8
10004c64:	789b      	ldrb	r3, [r3, #2]
10004c66:	78d2      	ldrb	r2, [r2, #3]
10004c68:	041b      	lsls	r3, r3, #16
10004c6a:	430b      	orrs	r3, r1
10004c6c:	0612      	lsls	r2, r2, #24
10004c6e:	431a      	orrs	r2, r3
10004c70:	4690      	mov	r8, r2
10004c72:	2200      	movs	r2, #0
10004c74:	4641      	mov	r1, r8
10004c76:	0053      	lsls	r3, r2, #1
10004c78:	5ac9      	ldrh	r1, [r1, r3]
10004c7a:	0b4b      	lsrs	r3, r1, #13
10004c7c:	d100      	bne.n	10004c80 <pio_add_program+0x78>
10004c7e:	1909      	adds	r1, r1, r4
10004c80:	1913      	adds	r3, r2, r4
10004c82:	3312      	adds	r3, #18
10004c84:	009b      	lsls	r3, r3, #2
10004c86:	3201      	adds	r2, #1
10004c88:	5199      	str	r1, [r3, r6]
10004c8a:	4297      	cmp	r7, r2
10004c8c:	d8f2      	bhi.n	10004c74 <pio_add_program+0x6c>
10004c8e:	4653      	mov	r3, sl
10004c90:	4662      	mov	r2, ip
10004c92:	4305      	orrs	r5, r0
10004c94:	509d      	str	r5, [r3, r2]
10004c96:	4648      	mov	r0, r9
10004c98:	f7fd fd80 	bl	1000279c <hw_claim_unlock>
10004c9c:	0020      	movs	r0, r4
10004c9e:	bce0      	pop	{r5, r6, r7}
10004ca0:	46ba      	mov	sl, r7
10004ca2:	46b1      	mov	r9, r6
10004ca4:	46a8      	mov	r8, r5
10004ca6:	bdf0      	pop	{r4, r5, r6, r7, pc}
10004ca8:	4808      	ldr	r0, [pc, #32]	; (10004ccc <pio_add_program+0xc4>)
10004caa:	f7fe fe43 	bl	10003934 <panic>
10004cae:	2b00      	cmp	r3, #0
10004cb0:	da02      	bge.n	10004cb8 <pio_add_program+0xb0>
10004cb2:	e7f9      	b.n	10004ca8 <pio_add_program+0xa0>
10004cb4:	3b01      	subs	r3, #1
10004cb6:	d3f7      	bcc.n	10004ca8 <pio_add_program+0xa0>
10004cb8:	0015      	movs	r5, r2
10004cba:	409d      	lsls	r5, r3
10004cbc:	001c      	movs	r4, r3
10004cbe:	4205      	tst	r5, r0
10004cc0:	d1f8      	bne.n	10004cb4 <pio_add_program+0xac>
10004cc2:	e7c7      	b.n	10004c54 <pio_add_program+0x4c>
10004cc4:	afd00000 	.word	0xafd00000
10004cc8:	200279f8 	.word	0x200279f8
10004ccc:	1000885c 	.word	0x1000885c

10004cd0 <pio_sm_set_pins_with_mask>:
10004cd0:	b5f0      	push	{r4, r5, r6, r7, lr}
10004cd2:	46de      	mov	lr, fp
10004cd4:	4657      	mov	r7, sl
10004cd6:	464e      	mov	r6, r9
10004cd8:	4645      	mov	r5, r8
10004cda:	001c      	movs	r4, r3
10004cdc:	004b      	lsls	r3, r1, #1
10004cde:	b5e0      	push	{r5, r6, r7, lr}
10004ce0:	468b      	mov	fp, r1
10004ce2:	001d      	movs	r5, r3
10004ce4:	4684      	mov	ip, r0
10004ce6:	445d      	add	r5, fp
10004ce8:	00ed      	lsls	r5, r5, #3
10004cea:	4465      	add	r5, ip
10004cec:	002f      	movs	r7, r5
10004cee:	b085      	sub	sp, #20
10004cf0:	37dc      	adds	r7, #220	; 0xdc
10004cf2:	9303      	str	r3, [sp, #12]
10004cf4:	683b      	ldr	r3, [r7, #0]
10004cf6:	0016      	movs	r6, r2
10004cf8:	9002      	str	r0, [sp, #8]
10004cfa:	9301      	str	r3, [sp, #4]
10004cfc:	2c00      	cmp	r4, #0
10004cfe:	d019      	beq.n	10004d34 <pio_sm_set_pins_with_mask+0x64>
10004d00:	2380      	movs	r3, #128	; 0x80
10004d02:	04db      	lsls	r3, r3, #19
10004d04:	469a      	mov	sl, r3
10004d06:	2301      	movs	r3, #1
10004d08:	4699      	mov	r9, r3
10004d0a:	23e0      	movs	r3, #224	; 0xe0
10004d0c:	021b      	lsls	r3, r3, #8
10004d0e:	4698      	mov	r8, r3
10004d10:	35d8      	adds	r5, #216	; 0xd8
10004d12:	0020      	movs	r0, r4
10004d14:	f7ff f9ce 	bl	100040b4 <__wrap___ctzsi2>
10004d18:	4652      	mov	r2, sl
10004d1a:	0143      	lsls	r3, r0, #5
10004d1c:	4313      	orrs	r3, r2
10004d1e:	603b      	str	r3, [r7, #0]
10004d20:	0033      	movs	r3, r6
10004d22:	464a      	mov	r2, r9
10004d24:	40c3      	lsrs	r3, r0
10004d26:	4013      	ands	r3, r2
10004d28:	4642      	mov	r2, r8
10004d2a:	4313      	orrs	r3, r2
10004d2c:	602b      	str	r3, [r5, #0]
10004d2e:	1e63      	subs	r3, r4, #1
10004d30:	401c      	ands	r4, r3
10004d32:	d1ee      	bne.n	10004d12 <pio_sm_set_pins_with_mask+0x42>
10004d34:	9b03      	ldr	r3, [sp, #12]
10004d36:	445b      	add	r3, fp
10004d38:	00d8      	lsls	r0, r3, #3
10004d3a:	9b02      	ldr	r3, [sp, #8]
10004d3c:	469c      	mov	ip, r3
10004d3e:	9b01      	ldr	r3, [sp, #4]
10004d40:	4460      	add	r0, ip
10004d42:	30dc      	adds	r0, #220	; 0xdc
10004d44:	6003      	str	r3, [r0, #0]
10004d46:	b005      	add	sp, #20
10004d48:	bcf0      	pop	{r4, r5, r6, r7}
10004d4a:	46bb      	mov	fp, r7
10004d4c:	46b2      	mov	sl, r6
10004d4e:	46a9      	mov	r9, r5
10004d50:	46a0      	mov	r8, r4
10004d52:	bdf0      	pop	{r4, r5, r6, r7, pc}

10004d54 <pio_sm_set_pindirs_with_mask>:
10004d54:	b5f0      	push	{r4, r5, r6, r7, lr}
10004d56:	46de      	mov	lr, fp
10004d58:	4657      	mov	r7, sl
10004d5a:	464e      	mov	r6, r9
10004d5c:	4645      	mov	r5, r8
10004d5e:	001c      	movs	r4, r3
10004d60:	004b      	lsls	r3, r1, #1
10004d62:	b5e0      	push	{r5, r6, r7, lr}
10004d64:	468b      	mov	fp, r1
10004d66:	001d      	movs	r5, r3
10004d68:	4684      	mov	ip, r0
10004d6a:	445d      	add	r5, fp
10004d6c:	00ed      	lsls	r5, r5, #3
10004d6e:	4465      	add	r5, ip
10004d70:	002f      	movs	r7, r5
10004d72:	b085      	sub	sp, #20
10004d74:	37dc      	adds	r7, #220	; 0xdc
10004d76:	9303      	str	r3, [sp, #12]
10004d78:	683b      	ldr	r3, [r7, #0]
10004d7a:	0016      	movs	r6, r2
10004d7c:	9002      	str	r0, [sp, #8]
10004d7e:	9301      	str	r3, [sp, #4]
10004d80:	2c00      	cmp	r4, #0
10004d82:	d018      	beq.n	10004db6 <pio_sm_set_pindirs_with_mask+0x62>
10004d84:	2380      	movs	r3, #128	; 0x80
10004d86:	04db      	lsls	r3, r3, #19
10004d88:	469a      	mov	sl, r3
10004d8a:	2301      	movs	r3, #1
10004d8c:	4699      	mov	r9, r3
10004d8e:	4b12      	ldr	r3, [pc, #72]	; (10004dd8 <pio_sm_set_pindirs_with_mask+0x84>)
10004d90:	35d8      	adds	r5, #216	; 0xd8
10004d92:	4698      	mov	r8, r3
10004d94:	0020      	movs	r0, r4
10004d96:	f7ff f98d 	bl	100040b4 <__wrap___ctzsi2>
10004d9a:	4652      	mov	r2, sl
10004d9c:	0143      	lsls	r3, r0, #5
10004d9e:	4313      	orrs	r3, r2
10004da0:	603b      	str	r3, [r7, #0]
10004da2:	0033      	movs	r3, r6
10004da4:	464a      	mov	r2, r9
10004da6:	40c3      	lsrs	r3, r0
10004da8:	4013      	ands	r3, r2
10004daa:	4642      	mov	r2, r8
10004dac:	4313      	orrs	r3, r2
10004dae:	602b      	str	r3, [r5, #0]
10004db0:	1e63      	subs	r3, r4, #1
10004db2:	401c      	ands	r4, r3
10004db4:	d1ee      	bne.n	10004d94 <pio_sm_set_pindirs_with_mask+0x40>
10004db6:	9b03      	ldr	r3, [sp, #12]
10004db8:	445b      	add	r3, fp
10004dba:	00d8      	lsls	r0, r3, #3
10004dbc:	9b02      	ldr	r3, [sp, #8]
10004dbe:	469c      	mov	ip, r3
10004dc0:	9b01      	ldr	r3, [sp, #4]
10004dc2:	4460      	add	r0, ip
10004dc4:	30dc      	adds	r0, #220	; 0xdc
10004dc6:	6003      	str	r3, [r0, #0]
10004dc8:	b005      	add	sp, #20
10004dca:	bcf0      	pop	{r4, r5, r6, r7}
10004dcc:	46bb      	mov	fp, r7
10004dce:	46b2      	mov	sl, r6
10004dd0:	46a9      	mov	r9, r5
10004dd2:	46a0      	mov	r8, r4
10004dd4:	bdf0      	pop	{r4, r5, r6, r7, pc}
10004dd6:	46c0      	nop			; (mov r8, r8)
10004dd8:	0000e080 	.word	0x0000e080

10004ddc <pio_sm_set_consecutive_pindirs>:
10004ddc:	b5f0      	push	{r4, r5, r6, r7, lr}
10004dde:	464e      	mov	r6, r9
10004de0:	4645      	mov	r5, r8
10004de2:	46de      	mov	lr, fp
10004de4:	4657      	mov	r7, sl
10004de6:	468a      	mov	sl, r1
10004de8:	0049      	lsls	r1, r1, #1
10004dea:	b5e0      	push	{r5, r6, r7, lr}
10004dec:	000d      	movs	r5, r1
10004dee:	4680      	mov	r8, r0
10004df0:	4455      	add	r5, sl
10004df2:	00ed      	lsls	r5, r5, #3
10004df4:	4445      	add	r5, r8
10004df6:	4689      	mov	r9, r1
10004df8:	0029      	movs	r1, r5
10004dfa:	ac09      	add	r4, sp, #36	; 0x24
10004dfc:	7826      	ldrb	r6, [r4, #0]
10004dfe:	31dc      	adds	r1, #220	; 0xdc
10004e00:	1e74      	subs	r4, r6, #1
10004e02:	41a6      	sbcs	r6, r4
10004e04:	6808      	ldr	r0, [r1, #0]
10004e06:	4274      	negs	r4, r6
10004e08:	4684      	mov	ip, r0
10004e0a:	4814      	ldr	r0, [pc, #80]	; (10004e5c <pio_sm_set_consecutive_pindirs+0x80>)
10004e0c:	261f      	movs	r6, #31
10004e0e:	4683      	mov	fp, r0
10004e10:	4026      	ands	r6, r4
10004e12:	445e      	add	r6, fp
10004e14:	2b05      	cmp	r3, #5
10004e16:	d90c      	bls.n	10004e32 <pio_sm_set_consecutive_pindirs+0x56>
10004e18:	20a0      	movs	r0, #160	; 0xa0
10004e1a:	271f      	movs	r7, #31
10004e1c:	0540      	lsls	r0, r0, #21
10004e1e:	35d8      	adds	r5, #216	; 0xd8
10004e20:	0154      	lsls	r4, r2, #5
10004e22:	4304      	orrs	r4, r0
10004e24:	3205      	adds	r2, #5
10004e26:	3b05      	subs	r3, #5
10004e28:	600c      	str	r4, [r1, #0]
10004e2a:	403a      	ands	r2, r7
10004e2c:	602e      	str	r6, [r5, #0]
10004e2e:	2b05      	cmp	r3, #5
10004e30:	d8f6      	bhi.n	10004e20 <pio_sm_set_consecutive_pindirs+0x44>
10004e32:	4649      	mov	r1, r9
10004e34:	4451      	add	r1, sl
10004e36:	00c9      	lsls	r1, r1, #3
10004e38:	4441      	add	r1, r8
10004e3a:	0152      	lsls	r2, r2, #5
10004e3c:	069b      	lsls	r3, r3, #26
10004e3e:	4313      	orrs	r3, r2
10004e40:	000a      	movs	r2, r1
10004e42:	0008      	movs	r0, r1
10004e44:	32dc      	adds	r2, #220	; 0xdc
10004e46:	6013      	str	r3, [r2, #0]
10004e48:	4663      	mov	r3, ip
10004e4a:	30d8      	adds	r0, #216	; 0xd8
10004e4c:	6006      	str	r6, [r0, #0]
10004e4e:	6013      	str	r3, [r2, #0]
10004e50:	bcf0      	pop	{r4, r5, r6, r7}
10004e52:	46bb      	mov	fp, r7
10004e54:	46b2      	mov	sl, r6
10004e56:	46a9      	mov	r9, r5
10004e58:	46a0      	mov	r8, r4
10004e5a:	bdf0      	pop	{r4, r5, r6, r7, pc}
10004e5c:	0000e080 	.word	0x0000e080

10004e60 <pio_sm_init>:
10004e60:	b5f0      	push	{r4, r5, r6, r7, lr}
10004e62:	2501      	movs	r5, #1
10004e64:	408d      	lsls	r5, r1
10004e66:	6804      	ldr	r4, [r0, #0]
10004e68:	43ac      	bics	r4, r5
10004e6a:	004d      	lsls	r5, r1, #1
10004e6c:	6004      	str	r4, [r0, #0]
10004e6e:	186c      	adds	r4, r5, r1
10004e70:	00e4      	lsls	r4, r4, #3
10004e72:	1904      	adds	r4, r0, r4
10004e74:	0026      	movs	r6, r4
10004e76:	36c8      	adds	r6, #200	; 0xc8
10004e78:	2b00      	cmp	r3, #0
10004e7a:	d02a      	beq.n	10004ed2 <pio_sm_init+0x72>
10004e7c:	681f      	ldr	r7, [r3, #0]
10004e7e:	34dc      	adds	r4, #220	; 0xdc
10004e80:	6037      	str	r7, [r6, #0]
10004e82:	685f      	ldr	r7, [r3, #4]
10004e84:	6077      	str	r7, [r6, #4]
10004e86:	689f      	ldr	r7, [r3, #8]
10004e88:	68db      	ldr	r3, [r3, #12]
10004e8a:	60b7      	str	r7, [r6, #8]
10004e8c:	6023      	str	r3, [r4, #0]
10004e8e:	186d      	adds	r5, r5, r1
10004e90:	00eb      	lsls	r3, r5, #3
10004e92:	001d      	movs	r5, r3
10004e94:	2480      	movs	r4, #128	; 0x80
10004e96:	35d0      	adds	r5, #208	; 0xd0
10004e98:	1945      	adds	r5, r0, r5
10004e9a:	0164      	lsls	r4, r4, #5
10004e9c:	432c      	orrs	r4, r5
10004e9e:	2580      	movs	r5, #128	; 0x80
10004ea0:	062d      	lsls	r5, r5, #24
10004ea2:	6025      	str	r5, [r4, #0]
10004ea4:	6025      	str	r5, [r4, #0]
10004ea6:	4c11      	ldr	r4, [pc, #68]	; (10004eec <pio_sm_init+0x8c>)
10004ea8:	1d0d      	adds	r5, r1, #4
10004eaa:	408c      	lsls	r4, r1
10004eac:	6084      	str	r4, [r0, #8]
10004eae:	2401      	movs	r4, #1
10004eb0:	0027      	movs	r7, r4
10004eb2:	40af      	lsls	r7, r5
10004eb4:	003d      	movs	r5, r7
10004eb6:	3108      	adds	r1, #8
10004eb8:	408c      	lsls	r4, r1
10004eba:	211f      	movs	r1, #31
10004ebc:	6806      	ldr	r6, [r0, #0]
10004ebe:	400a      	ands	r2, r1
10004ec0:	4335      	orrs	r5, r6
10004ec2:	6005      	str	r5, [r0, #0]
10004ec4:	6805      	ldr	r5, [r0, #0]
10004ec6:	432c      	orrs	r4, r5
10004ec8:	6004      	str	r4, [r0, #0]
10004eca:	18c0      	adds	r0, r0, r3
10004ecc:	30d8      	adds	r0, #216	; 0xd8
10004ece:	6002      	str	r2, [r0, #0]
10004ed0:	bdf0      	pop	{r4, r5, r6, r7, pc}
10004ed2:	2780      	movs	r7, #128	; 0x80
10004ed4:	027f      	lsls	r7, r7, #9
10004ed6:	6037      	str	r7, [r6, #0]
10004ed8:	27f8      	movs	r7, #248	; 0xf8
10004eda:	027f      	lsls	r7, r7, #9
10004edc:	6077      	str	r7, [r6, #4]
10004ede:	27c0      	movs	r7, #192	; 0xc0
10004ee0:	34dc      	adds	r4, #220	; 0xdc
10004ee2:	033f      	lsls	r7, r7, #12
10004ee4:	60b7      	str	r7, [r6, #8]
10004ee6:	6023      	str	r3, [r4, #0]
10004ee8:	e7d1      	b.n	10004e8e <pio_sm_init+0x2e>
10004eea:	46c0      	nop			; (mov r8, r8)
10004eec:	01010101 	.word	0x01010101

10004ef0 <dma_claim_unused_channel>:
10004ef0:	b500      	push	{lr}
10004ef2:	4b05      	ldr	r3, [pc, #20]	; (10004f08 <dma_claim_unused_channel+0x18>)
10004ef4:	b083      	sub	sp, #12
10004ef6:	0001      	movs	r1, r0
10004ef8:	9300      	str	r3, [sp, #0]
10004efa:	2200      	movs	r2, #0
10004efc:	230b      	movs	r3, #11
10004efe:	4803      	ldr	r0, [pc, #12]	; (10004f0c <dma_claim_unused_channel+0x1c>)
10004f00:	f7fd fc78 	bl	100027f4 <hw_claim_unused_from_range>
10004f04:	b003      	add	sp, #12
10004f06:	bd00      	pop	{pc}
10004f08:	10008870 	.word	0x10008870
10004f0c:	2002abbc 	.word	0x2002abbc

10004f10 <i2c_write_blocking>:
10004f10:	b5f0      	push	{r4, r5, r6, r7, lr}
10004f12:	4657      	mov	r7, sl
10004f14:	464e      	mov	r6, r9
10004f16:	4645      	mov	r5, r8
10004f18:	46de      	mov	lr, fp
10004f1a:	4690      	mov	r8, r2
10004f1c:	2200      	movs	r2, #0
10004f1e:	b5e0      	push	{r5, r6, r7, lr}
10004f20:	b083      	sub	sp, #12
10004f22:	001e      	movs	r6, r3
10004f24:	ab0c      	add	r3, sp, #48	; 0x30
10004f26:	781b      	ldrb	r3, [r3, #0]
10004f28:	4684      	mov	ip, r0
10004f2a:	469a      	mov	sl, r3
10004f2c:	6803      	ldr	r3, [r0, #0]
10004f2e:	66da      	str	r2, [r3, #108]	; 0x6c
10004f30:	3201      	adds	r2, #1
10004f32:	6059      	str	r1, [r3, #4]
10004f34:	66da      	str	r2, [r3, #108]	; 0x6c
10004f36:	2e00      	cmp	r6, #0
10004f38:	dd4f      	ble.n	10004fda <i2c_write_blocking+0xca>
10004f3a:	4651      	mov	r1, sl
10004f3c:	404a      	eors	r2, r1
10004f3e:	0252      	lsls	r2, r2, #9
10004f40:	9201      	str	r2, [sp, #4]
10004f42:	2280      	movs	r2, #128	; 0x80
10004f44:	4691      	mov	r9, r2
10004f46:	0032      	movs	r2, r6
10004f48:	2580      	movs	r5, #128	; 0x80
10004f4a:	1e77      	subs	r7, r6, #1
10004f4c:	2000      	movs	r0, #0
10004f4e:	4646      	mov	r6, r8
10004f50:	2110      	movs	r1, #16
10004f52:	4690      	mov	r8, r2
10004f54:	00ad      	lsls	r5, r5, #2
10004f56:	2400      	movs	r4, #0
10004f58:	2800      	cmp	r0, #0
10004f5a:	d104      	bne.n	10004f66 <i2c_write_blocking+0x56>
10004f5c:	4662      	mov	r2, ip
10004f5e:	7914      	ldrb	r4, [r2, #4]
10004f60:	1e62      	subs	r2, r4, #1
10004f62:	4194      	sbcs	r4, r2
10004f64:	02a4      	lsls	r4, r4, #10
10004f66:	2200      	movs	r2, #0
10004f68:	4693      	mov	fp, r2
10004f6a:	42b8      	cmp	r0, r7
10004f6c:	d01a      	beq.n	10004fa4 <i2c_write_blocking+0x94>
10004f6e:	5c32      	ldrb	r2, [r6, r0]
10004f70:	4322      	orrs	r2, r4
10004f72:	465c      	mov	r4, fp
10004f74:	4322      	orrs	r2, r4
10004f76:	611a      	str	r2, [r3, #16]
10004f78:	6b5a      	ldr	r2, [r3, #52]	; 0x34
10004f7a:	4211      	tst	r1, r2
10004f7c:	d0fc      	beq.n	10004f78 <i2c_write_blocking+0x68>
10004f7e:	464a      	mov	r2, r9
10004f80:	589c      	ldr	r4, [r3, r2]
10004f82:	2c00      	cmp	r4, #0
10004f84:	d111      	bne.n	10004faa <i2c_write_blocking+0x9a>
10004f86:	42b8      	cmp	r0, r7
10004f88:	d022      	beq.n	10004fd0 <i2c_write_blocking+0xc0>
10004f8a:	3001      	adds	r0, #1
10004f8c:	4580      	cmp	r8, r0
10004f8e:	d1e2      	bne.n	10004f56 <i2c_write_blocking+0x46>
10004f90:	4663      	mov	r3, ip
10004f92:	4652      	mov	r2, sl
10004f94:	711a      	strb	r2, [r3, #4]
10004f96:	b003      	add	sp, #12
10004f98:	bcf0      	pop	{r4, r5, r6, r7}
10004f9a:	46bb      	mov	fp, r7
10004f9c:	46b2      	mov	sl, r6
10004f9e:	46a9      	mov	r9, r5
10004fa0:	46a0      	mov	r8, r4
10004fa2:	bdf0      	pop	{r4, r5, r6, r7, pc}
10004fa4:	9a01      	ldr	r2, [sp, #4]
10004fa6:	4693      	mov	fp, r2
10004fa8:	e7e1      	b.n	10004f6e <i2c_write_blocking+0x5e>
10004faa:	6d5a      	ldr	r2, [r3, #84]	; 0x54
10004fac:	2201      	movs	r2, #1
10004fae:	4693      	mov	fp, r2
10004fb0:	6b5a      	ldr	r2, [r3, #52]	; 0x34
10004fb2:	422a      	tst	r2, r5
10004fb4:	d0fc      	beq.n	10004fb0 <i2c_write_blocking+0xa0>
10004fb6:	6e1a      	ldr	r2, [r3, #96]	; 0x60
10004fb8:	465a      	mov	r2, fp
10004fba:	2a00      	cmp	r2, #0
10004fbc:	d0e5      	beq.n	10004f8a <i2c_write_blocking+0x7a>
10004fbe:	2c00      	cmp	r4, #0
10004fc0:	d003      	beq.n	10004fca <i2c_write_blocking+0xba>
10004fc2:	07e3      	lsls	r3, r4, #31
10004fc4:	d401      	bmi.n	10004fca <i2c_write_blocking+0xba>
10004fc6:	0723      	lsls	r3, r4, #28
10004fc8:	d4e2      	bmi.n	10004f90 <i2c_write_blocking+0x80>
10004fca:	2002      	movs	r0, #2
10004fcc:	4240      	negs	r0, r0
10004fce:	e7df      	b.n	10004f90 <i2c_write_blocking+0x80>
10004fd0:	4652      	mov	r2, sl
10004fd2:	2a00      	cmp	r2, #0
10004fd4:	d1d9      	bne.n	10004f8a <i2c_write_blocking+0x7a>
10004fd6:	46d3      	mov	fp, sl
10004fd8:	e7ea      	b.n	10004fb0 <i2c_write_blocking+0xa0>
10004fda:	2000      	movs	r0, #0
10004fdc:	e7d8      	b.n	10004f90 <i2c_write_blocking+0x80>
10004fde:	46c0      	nop			; (mov r8, r8)

10004fe0 <spi_init>:
10004fe0:	b5f8      	push	{r3, r4, r5, r6, r7, lr}
10004fe2:	4657      	mov	r7, sl
10004fe4:	4682      	mov	sl, r0
10004fe6:	4b38      	ldr	r3, [pc, #224]	; (100050c8 <spi_init+0xe8>)
10004fe8:	4645      	mov	r5, r8
10004fea:	4453      	add	r3, sl
10004fec:	425a      	negs	r2, r3
10004fee:	4153      	adcs	r3, r2
10004ff0:	2280      	movs	r2, #128	; 0x80
10004ff2:	0292      	lsls	r2, r2, #10
10004ff4:	4694      	mov	ip, r2
10004ff6:	46de      	mov	lr, fp
10004ff8:	464e      	mov	r6, r9
10004ffa:	425b      	negs	r3, r3
10004ffc:	0c1b      	lsrs	r3, r3, #16
10004ffe:	4a33      	ldr	r2, [pc, #204]	; (100050cc <spi_init+0xec>)
10005000:	041b      	lsls	r3, r3, #16
10005002:	4463      	add	r3, ip
10005004:	b5e0      	push	{r5, r6, r7, lr}
10005006:	6013      	str	r3, [r2, #0]
10005008:	4a31      	ldr	r2, [pc, #196]	; (100050d0 <spi_init+0xf0>)
1000500a:	000d      	movs	r5, r1
1000500c:	4931      	ldr	r1, [pc, #196]	; (100050d4 <spi_init+0xf4>)
1000500e:	6013      	str	r3, [r2, #0]
10005010:	0018      	movs	r0, r3
10005012:	688a      	ldr	r2, [r1, #8]
10005014:	4390      	bics	r0, r2
10005016:	4681      	mov	r9, r0
10005018:	d1fa      	bne.n	10005010 <spi_init+0x30>
1000501a:	2006      	movs	r0, #6
1000501c:	f7fe fe06 	bl	10003c2c <clock_get_hz>
10005020:	4680      	mov	r8, r0
10005022:	2080      	movs	r0, #128	; 0x80
10005024:	2102      	movs	r1, #2
10005026:	0def      	lsrs	r7, r5, #23
10005028:	026e      	lsls	r6, r5, #9
1000502a:	0dab      	lsrs	r3, r5, #22
1000502c:	02aa      	lsls	r2, r5, #10
1000502e:	0040      	lsls	r0, r0, #1
10005030:	e005      	b.n	1000503e <spi_init+0x5e>
10005032:	4590      	cmp	r8, r2
10005034:	d307      	bcc.n	10005046 <spi_init+0x66>
10005036:	1992      	adds	r2, r2, r6
10005038:	417b      	adcs	r3, r7
1000503a:	4281      	cmp	r1, r0
1000503c:	d03f      	beq.n	100050be <spi_init+0xde>
1000503e:	000c      	movs	r4, r1
10005040:	3102      	adds	r1, #2
10005042:	2b00      	cmp	r3, #0
10005044:	d0f5      	beq.n	10005032 <spi_init+0x52>
10005046:	2680      	movs	r6, #128	; 0x80
10005048:	0227      	lsls	r7, r4, #8
1000504a:	1b3f      	subs	r7, r7, r4
1000504c:	0076      	lsls	r6, r6, #1
1000504e:	e002      	b.n	10005056 <spi_init+0x76>
10005050:	1b3f      	subs	r7, r7, r4
10005052:	2e01      	cmp	r6, #1
10005054:	d035      	beq.n	100050c2 <spi_init+0xe2>
10005056:	0039      	movs	r1, r7
10005058:	4640      	mov	r0, r8
1000505a:	46b3      	mov	fp, r6
1000505c:	3e01      	subs	r6, #1
1000505e:	f7ff f889 	bl	10004174 <__wrap___aeabi_uidiv>
10005062:	4285      	cmp	r5, r0
10005064:	d2f4      	bcs.n	10005050 <spi_init+0x70>
10005066:	4659      	mov	r1, fp
10005068:	0233      	lsls	r3, r6, #8
1000506a:	4699      	mov	r9, r3
1000506c:	4361      	muls	r1, r4
1000506e:	4653      	mov	r3, sl
10005070:	464a      	mov	r2, r9
10005072:	611c      	str	r4, [r3, #16]
10005074:	681b      	ldr	r3, [r3, #0]
10005076:	4650      	mov	r0, sl
10005078:	4053      	eors	r3, r2
1000507a:	22ff      	movs	r2, #255	; 0xff
1000507c:	0212      	lsls	r2, r2, #8
1000507e:	4013      	ands	r3, r2
10005080:	2280      	movs	r2, #128	; 0x80
10005082:	0152      	lsls	r2, r2, #5
10005084:	4302      	orrs	r2, r0
10005086:	6013      	str	r3, [r2, #0]
10005088:	6803      	ldr	r3, [r0, #0]
1000508a:	2007      	movs	r0, #7
1000508c:	4058      	eors	r0, r3
1000508e:	23cf      	movs	r3, #207	; 0xcf
10005090:	4003      	ands	r3, r0
10005092:	6013      	str	r3, [r2, #0]
10005094:	4652      	mov	r2, sl
10005096:	2380      	movs	r3, #128	; 0x80
10005098:	2003      	movs	r0, #3
1000509a:	019b      	lsls	r3, r3, #6
1000509c:	3224      	adds	r2, #36	; 0x24
1000509e:	431a      	orrs	r2, r3
100050a0:	6010      	str	r0, [r2, #0]
100050a2:	4652      	mov	r2, sl
100050a4:	1d10      	adds	r0, r2, #4
100050a6:	4318      	orrs	r0, r3
100050a8:	2302      	movs	r3, #2
100050aa:	6003      	str	r3, [r0, #0]
100050ac:	4640      	mov	r0, r8
100050ae:	f7ff f861 	bl	10004174 <__wrap___aeabi_uidiv>
100050b2:	bcf0      	pop	{r4, r5, r6, r7}
100050b4:	46bb      	mov	fp, r7
100050b6:	46b2      	mov	sl, r6
100050b8:	46a9      	mov	r9, r5
100050ba:	46a0      	mov	r8, r4
100050bc:	bdf8      	pop	{r3, r4, r5, r6, r7, pc}
100050be:	000c      	movs	r4, r1
100050c0:	e7c1      	b.n	10005046 <spi_init+0x66>
100050c2:	0021      	movs	r1, r4
100050c4:	e7d3      	b.n	1000506e <spi_init+0x8e>
100050c6:	46c0      	nop			; (mov r8, r8)
100050c8:	bffc4000 	.word	0xbffc4000
100050cc:	4000e000 	.word	0x4000e000
100050d0:	4000f000 	.word	0x4000f000
100050d4:	4000c000 	.word	0x4000c000

100050d8 <strlen>:
100050d8:	b510      	push	{r4, lr}
100050da:	0783      	lsls	r3, r0, #30
100050dc:	d00a      	beq.n	100050f4 <strlen+0x1c>
100050de:	0003      	movs	r3, r0
100050e0:	2103      	movs	r1, #3
100050e2:	e002      	b.n	100050ea <strlen+0x12>
100050e4:	3301      	adds	r3, #1
100050e6:	420b      	tst	r3, r1
100050e8:	d005      	beq.n	100050f6 <strlen+0x1e>
100050ea:	781a      	ldrb	r2, [r3, #0]
100050ec:	2a00      	cmp	r2, #0
100050ee:	d1f9      	bne.n	100050e4 <strlen+0xc>
100050f0:	1a18      	subs	r0, r3, r0
100050f2:	bd10      	pop	{r4, pc}
100050f4:	0003      	movs	r3, r0
100050f6:	6819      	ldr	r1, [r3, #0]
100050f8:	4a0c      	ldr	r2, [pc, #48]	; (1000512c <strlen+0x54>)
100050fa:	4c0d      	ldr	r4, [pc, #52]	; (10005130 <strlen+0x58>)
100050fc:	188a      	adds	r2, r1, r2
100050fe:	438a      	bics	r2, r1
10005100:	4222      	tst	r2, r4
10005102:	d10f      	bne.n	10005124 <strlen+0x4c>
10005104:	6859      	ldr	r1, [r3, #4]
10005106:	4a09      	ldr	r2, [pc, #36]	; (1000512c <strlen+0x54>)
10005108:	3304      	adds	r3, #4
1000510a:	188a      	adds	r2, r1, r2
1000510c:	438a      	bics	r2, r1
1000510e:	4222      	tst	r2, r4
10005110:	d108      	bne.n	10005124 <strlen+0x4c>
10005112:	6859      	ldr	r1, [r3, #4]
10005114:	4a05      	ldr	r2, [pc, #20]	; (1000512c <strlen+0x54>)
10005116:	3304      	adds	r3, #4
10005118:	188a      	adds	r2, r1, r2
1000511a:	438a      	bics	r2, r1
1000511c:	4222      	tst	r2, r4
1000511e:	d0f1      	beq.n	10005104 <strlen+0x2c>
10005120:	e000      	b.n	10005124 <strlen+0x4c>
10005122:	3301      	adds	r3, #1
10005124:	781a      	ldrb	r2, [r3, #0]
10005126:	2a00      	cmp	r2, #0
10005128:	d1fb      	bne.n	10005122 <strlen+0x4a>
1000512a:	e7e1      	b.n	100050f0 <strlen+0x18>
1000512c:	fefefeff 	.word	0xfefefeff
10005130:	80808080 	.word	0x80808080

10005134 <_fini>:
10005134:	b5f8      	push	{r3, r4, r5, r6, r7, lr}
10005136:	46c0      	nop			; (mov r8, r8)

10005138 <__mutex_exit_veneer>:
10005138:	b401      	push	{r0}
1000513a:	4802      	ldr	r0, [pc, #8]	; (10005144 <__mutex_exit_veneer+0xc>)
1000513c:	4684      	mov	ip, r0
1000513e:	bc01      	pop	{r0}
10005140:	4760      	bx	ip
10005142:	bf00      	nop
10005144:	20000279 	.word	0x20000279

10005148 <____aeabi_ldiv0_veneer>:
10005148:	b401      	push	{r0}
1000514a:	4802      	ldr	r0, [pc, #8]	; (10005154 <____aeabi_ldiv0_veneer+0xc>)
1000514c:	4684      	mov	ip, r0
1000514e:	bc01      	pop	{r0}
10005150:	4760      	bx	ip
10005152:	bf00      	nop
10005154:	20000441 	.word	0x20000441

10005158 <__memcmp_veneer>:
10005158:	b401      	push	{r0}
1000515a:	4802      	ldr	r0, [pc, #8]	; (10005164 <__memcmp_veneer+0xc>)
1000515c:	4684      	mov	ip, r0
1000515e:	bc01      	pop	{r0}
10005160:	4760      	bx	ip
10005162:	bf00      	nop
10005164:	20000445 	.word	0x20000445

10005168 <__flash_range_program_veneer>:
10005168:	b401      	push	{r0}
1000516a:	4802      	ldr	r0, [pc, #8]	; (10005174 <__flash_range_program_veneer+0xc>)
1000516c:	4684      	mov	ip, r0
1000516e:	bc01      	pop	{r0}
10005170:	4760      	bx	ip
10005172:	bf00      	nop
10005174:	200003d1 	.word	0x200003d1

10005178 <____aeabi_idiv0_veneer>:
10005178:	b401      	push	{r0}
1000517a:	4802      	ldr	r0, [pc, #8]	; (10005184 <____aeabi_idiv0_veneer+0xc>)
1000517c:	4684      	mov	ip, r0
1000517e:	bc01      	pop	{r0}
10005180:	4760      	bx	ip
10005182:	bf00      	nop
10005184:	20000441 	.word	0x20000441

10005188 <__mutex_try_enter_veneer>:
10005188:	b401      	push	{r0}
1000518a:	4802      	ldr	r0, [pc, #8]	; (10005194 <__mutex_try_enter_veneer+0xc>)
1000518c:	4684      	mov	ip, r0
1000518e:	bc01      	pop	{r0}
10005190:	4760      	bx	ip
10005192:	bf00      	nop
10005194:	2000021d 	.word	0x2000021d

10005198 <__flash_range_erase_veneer>:
10005198:	b401      	push	{r0}
1000519a:	4802      	ldr	r0, [pc, #8]	; (100051a4 <__flash_range_erase_veneer+0xc>)
1000519c:	4684      	mov	ip, r0
1000519e:	bc01      	pop	{r0}
100051a0:	4760      	bx	ip
100051a2:	bf00      	nop
100051a4:	20000361 	.word	0x20000361

100051a8 <__spi_write_blocking_veneer>:
100051a8:	b401      	push	{r0}
100051aa:	4802      	ldr	r0, [pc, #8]	; (100051b4 <__spi_write_blocking_veneer+0xc>)
100051ac:	4684      	mov	ip, r0
100051ae:	bc01      	pop	{r0}
100051b0:	4760      	bx	ip
100051b2:	bf00      	nop
100051b4:	200002d5 	.word	0x200002d5

100051b8 <__mutex_enter_blocking_veneer>:
100051b8:	b401      	push	{r0}
100051ba:	4802      	ldr	r0, [pc, #8]	; (100051c4 <__mutex_enter_blocking_veneer+0xc>)
100051bc:	4684      	mov	ip, r0
100051be:	bc01      	pop	{r0}
100051c0:	4760      	bx	ip
100051c2:	bf00      	nop
100051c4:	200001bd 	.word	0x200001bd

Disassembly of section .data:

200000c0 <core1_entry>:
200000c0:	b5f8      	push	{r3, r4, r5, r6, r7, lr}
200000c2:	46de      	mov	lr, fp
200000c4:	4657      	mov	r7, sl
200000c6:	464e      	mov	r6, r9
200000c8:	4645      	mov	r5, r8
200000ca:	b5e0      	push	{r5, r6, r7, lr}
200000cc:	f000 f9f8 	bl	200004c0 <__BuildStateMachineTables_veneer>
200000d0:	2000      	movs	r0, #0
200000d2:	f000 f9e5 	bl	200004a0 <__multicore_fifo_push_blocking_veneer>
200000d6:	f000 fa0b 	bl	200004f0 <__multicore_fifo_pop_blocking_veneer>
200000da:	4b32      	ldr	r3, [pc, #200]	; (200001a4 <core1_entry+0xe4>)
200000dc:	2180      	movs	r1, #128	; 0x80
200000de:	685a      	ldr	r2, [r3, #4]
200000e0:	0049      	lsls	r1, r1, #1
200000e2:	0014      	movs	r4, r2
200000e4:	400c      	ands	r4, r1
200000e6:	420a      	tst	r2, r1
200000e8:	d155      	bne.n	20000196 <core1_entry+0xd6>
200000ea:	6a1a      	ldr	r2, [r3, #32]
200000ec:	685a      	ldr	r2, [r3, #4]
200000ee:	420a      	tst	r2, r1
200000f0:	d0fb      	beq.n	200000ea <core1_entry+0x2a>
200000f2:	2300      	movs	r3, #0
200000f4:	2600      	movs	r6, #0
200000f6:	4698      	mov	r8, r3
200000f8:	469b      	mov	fp, r3
200000fa:	4699      	mov	r9, r3
200000fc:	4b2a      	ldr	r3, [pc, #168]	; (200001a8 <core1_entry+0xe8>)
200000fe:	4f2b      	ldr	r7, [pc, #172]	; (200001ac <core1_entry+0xec>)
20000100:	469a      	mov	sl, r3
20000102:	4d28      	ldr	r5, [pc, #160]	; (200001a4 <core1_entry+0xe4>)
20000104:	2280      	movs	r2, #128	; 0x80
20000106:	0052      	lsls	r2, r2, #1
20000108:	686b      	ldr	r3, [r5, #4]
2000010a:	4213      	tst	r3, r2
2000010c:	d1fc      	bne.n	20000108 <core1_entry+0x48>
2000010e:	23ff      	movs	r3, #255	; 0xff
20000110:	6a2a      	ldr	r2, [r5, #32]
20000112:	0224      	lsls	r4, r4, #8
20000114:	4013      	ands	r3, r2
20000116:	18e3      	adds	r3, r4, r3
20000118:	005b      	lsls	r3, r3, #1
2000011a:	5afa      	ldrh	r2, [r7, r3]
2000011c:	5cfc      	ldrb	r4, [r7, r3]
2000011e:	18fb      	adds	r3, r7, r3
20000120:	785b      	ldrb	r3, [r3, #1]
20000122:	06a4      	lsls	r4, r4, #26
20000124:	089b      	lsrs	r3, r3, #2
20000126:	0ea4      	lsrs	r4, r4, #26
20000128:	0a11      	lsrs	r1, r2, #8
2000012a:	05d0      	lsls	r0, r2, #23
2000012c:	d503      	bpl.n	20000136 <core1_entry+0x76>
2000012e:	2000      	movs	r0, #0
20000130:	46d8      	mov	r8, fp
20000132:	4681      	mov	r9, r0
20000134:	2600      	movs	r6, #0
20000136:	4650      	mov	r0, sl
20000138:	005b      	lsls	r3, r3, #1
2000013a:	5cc0      	ldrb	r0, [r0, r3]
2000013c:	4306      	orrs	r6, r0
2000013e:	0652      	lsls	r2, r2, #25
20000140:	d50d      	bpl.n	2000015e <core1_entry+0x9e>
20000142:	4642      	mov	r2, r8
20000144:	481a      	ldr	r0, [pc, #104]	; (200001b0 <core1_entry+0xf0>)
20000146:	0512      	lsls	r2, r2, #20
20000148:	0d12      	lsrs	r2, r2, #20
2000014a:	5486      	strb	r6, [r0, r2]
2000014c:	464a      	mov	r2, r9
2000014e:	4453      	add	r3, sl
20000150:	4072      	eors	r2, r6
20000152:	785e      	ldrb	r6, [r3, #1]
20000154:	2301      	movs	r3, #1
20000156:	b2d2      	uxtb	r2, r2
20000158:	469c      	mov	ip, r3
2000015a:	4691      	mov	r9, r2
2000015c:	44e0      	add	r8, ip
2000015e:	2302      	movs	r3, #2
20000160:	420b      	tst	r3, r1
20000162:	d00e      	beq.n	20000182 <core1_entry+0xc2>
20000164:	464a      	mov	r2, r9
20000166:	2a00      	cmp	r2, #0
20000168:	d10b      	bne.n	20000182 <core1_entry+0xc2>
2000016a:	22d0      	movs	r2, #208	; 0xd0
2000016c:	0612      	lsls	r2, r2, #24
2000016e:	6d11      	ldr	r1, [r2, #80]	; 0x50
20000170:	420b      	tst	r3, r1
20000172:	d00d      	beq.n	20000190 <core1_entry+0xd0>
20000174:	4643      	mov	r3, r8
20000176:	6553      	str	r3, [r2, #84]	; 0x54
20000178:	bf40      	sev
2000017a:	2203      	movs	r2, #3
2000017c:	3303      	adds	r3, #3
2000017e:	4393      	bics	r3, r2
20000180:	469b      	mov	fp, r3
20000182:	686b      	ldr	r3, [r5, #4]
20000184:	07db      	lsls	r3, r3, #31
20000186:	d5bd      	bpl.n	20000104 <core1_entry+0x44>
20000188:	480a      	ldr	r0, [pc, #40]	; (200001b4 <core1_entry+0xf4>)
2000018a:	f000 f991 	bl	200004b0 <____wrap_puts_veneer>
2000018e:	e7b9      	b.n	20000104 <core1_entry+0x44>
20000190:	4809      	ldr	r0, [pc, #36]	; (200001b8 <core1_entry+0xf8>)
20000192:	f000 f9a5 	bl	200004e0 <__panic_veneer>
20000196:	2300      	movs	r3, #0
20000198:	4698      	mov	r8, r3
2000019a:	469b      	mov	fp, r3
2000019c:	4699      	mov	r9, r3
2000019e:	001e      	movs	r6, r3
200001a0:	001c      	movs	r4, r3
200001a2:	e7ab      	b.n	200000fc <core1_entry+0x3c>
200001a4:	50300000 	.word	0x50300000
200001a8:	20027528 	.word	0x20027528
200001ac:	200010c4 	.word	0x200010c4
200001b0:	20026524 	.word	0x20026524
200001b4:	100051f8 	.word	0x100051f8
200001b8:	100051c8 	.word	0x100051c8

200001bc <mutex_enter_blocking>:
200001bc:	b570      	push	{r4, r5, r6, lr}
200001be:	24d0      	movs	r4, #208	; 0xd0
200001c0:	2500      	movs	r5, #0
200001c2:	0624      	lsls	r4, r4, #24
200001c4:	6802      	ldr	r2, [r0, #0]
200001c6:	f3ef 8110 	mrs	r1, PRIMASK
200001ca:	b672      	cpsid	i
200001cc:	6813      	ldr	r3, [r2, #0]
200001ce:	2b00      	cmp	r3, #0
200001d0:	d0fc      	beq.n	200001cc <mutex_enter_blocking+0x10>
200001d2:	f3bf 8f5f 	dmb	sy
200001d6:	2304      	movs	r3, #4
200001d8:	2200      	movs	r2, #0
200001da:	56c3      	ldrsb	r3, [r0, r3]
200001dc:	56a2      	ldrsb	r2, [r4, r2]
200001de:	1c5e      	adds	r6, r3, #1
200001e0:	d016      	beq.n	20000210 <mutex_enter_blocking+0x54>
200001e2:	4293      	cmp	r3, r2
200001e4:	d10c      	bne.n	20000200 <mutex_enter_blocking+0x44>
200001e6:	7943      	ldrb	r3, [r0, #5]
200001e8:	2b01      	cmp	r3, #1
200001ea:	d909      	bls.n	20000200 <mutex_enter_blocking+0x44>
200001ec:	3b01      	subs	r3, #1
200001ee:	7143      	strb	r3, [r0, #5]
200001f0:	6803      	ldr	r3, [r0, #0]
200001f2:	f3bf 8f5f 	dmb	sy
200001f6:	2200      	movs	r2, #0
200001f8:	601a      	str	r2, [r3, #0]
200001fa:	f381 8810 	msr	PRIMASK, r1
200001fe:	bd70      	pop	{r4, r5, r6, pc}
20000200:	6803      	ldr	r3, [r0, #0]
20000202:	f3bf 8f5f 	dmb	sy
20000206:	601d      	str	r5, [r3, #0]
20000208:	f381 8810 	msr	PRIMASK, r1
2000020c:	bf20      	wfe
2000020e:	e7d9      	b.n	200001c4 <mutex_enter_blocking+0x8>
20000210:	7943      	ldrb	r3, [r0, #5]
20000212:	7102      	strb	r2, [r0, #4]
20000214:	2b00      	cmp	r3, #0
20000216:	d0eb      	beq.n	200001f0 <mutex_enter_blocking+0x34>
20000218:	e7e8      	b.n	200001ec <mutex_enter_blocking+0x30>
2000021a:	46c0      	nop			; (mov r8, r8)

2000021c <mutex_try_enter>:
2000021c:	0003      	movs	r3, r0
2000021e:	b510      	push	{r4, lr}
20000220:	6800      	ldr	r0, [r0, #0]
20000222:	f3ef 8c10 	mrs	ip, PRIMASK
20000226:	b672      	cpsid	i
20000228:	6802      	ldr	r2, [r0, #0]
2000022a:	2a00      	cmp	r2, #0
2000022c:	d0fc      	beq.n	20000228 <mutex_try_enter+0xc>
2000022e:	f3bf 8f5f 	dmb	sy
20000232:	22d0      	movs	r2, #208	; 0xd0
20000234:	2000      	movs	r0, #0
20000236:	0612      	lsls	r2, r2, #24
20000238:	5610      	ldrsb	r0, [r2, r0]
2000023a:	2204      	movs	r2, #4
2000023c:	569a      	ldrsb	r2, [r3, r2]
2000023e:	1c54      	adds	r4, r2, #1
20000240:	d014      	beq.n	2000026c <mutex_try_enter+0x50>
20000242:	4282      	cmp	r2, r0
20000244:	d00b      	beq.n	2000025e <mutex_try_enter+0x42>
20000246:	2900      	cmp	r1, #0
20000248:	d013      	beq.n	20000272 <mutex_try_enter+0x56>
2000024a:	2000      	movs	r0, #0
2000024c:	600a      	str	r2, [r1, #0]
2000024e:	681b      	ldr	r3, [r3, #0]
20000250:	f3bf 8f5f 	dmb	sy
20000254:	2200      	movs	r2, #0
20000256:	601a      	str	r2, [r3, #0]
20000258:	f38c 8810 	msr	PRIMASK, ip
2000025c:	bd10      	pop	{r4, pc}
2000025e:	7958      	ldrb	r0, [r3, #5]
20000260:	2801      	cmp	r0, #1
20000262:	d9f0      	bls.n	20000246 <mutex_try_enter+0x2a>
20000264:	3801      	subs	r0, #1
20000266:	7158      	strb	r0, [r3, #5]
20000268:	2001      	movs	r0, #1
2000026a:	e7f0      	b.n	2000024e <mutex_try_enter+0x32>
2000026c:	7118      	strb	r0, [r3, #4]
2000026e:	2001      	movs	r0, #1
20000270:	e7ed      	b.n	2000024e <mutex_try_enter+0x32>
20000272:	2000      	movs	r0, #0
20000274:	e7eb      	b.n	2000024e <mutex_try_enter+0x32>
20000276:	46c0      	nop			; (mov r8, r8)

20000278 <mutex_exit>:
20000278:	6802      	ldr	r2, [r0, #0]
2000027a:	f3ef 8110 	mrs	r1, PRIMASK
2000027e:	b672      	cpsid	i
20000280:	6813      	ldr	r3, [r2, #0]
20000282:	2b00      	cmp	r3, #0
20000284:	d0fc      	beq.n	20000280 <mutex_exit+0x8>
20000286:	f3bf 8f5f 	dmb	sy
2000028a:	7943      	ldrb	r3, [r0, #5]
2000028c:	2b00      	cmp	r3, #0
2000028e:	d109      	bne.n	200002a4 <mutex_exit+0x2c>
20000290:	22ff      	movs	r2, #255	; 0xff
20000292:	7102      	strb	r2, [r0, #4]
20000294:	6802      	ldr	r2, [r0, #0]
20000296:	f3bf 8f5f 	dmb	sy
2000029a:	6013      	str	r3, [r2, #0]
2000029c:	f381 8810 	msr	PRIMASK, r1
200002a0:	bf40      	sev
200002a2:	4770      	bx	lr
200002a4:	3301      	adds	r3, #1
200002a6:	b2db      	uxtb	r3, r3
200002a8:	7143      	strb	r3, [r0, #5]
200002aa:	2bff      	cmp	r3, #255	; 0xff
200002ac:	d007      	beq.n	200002be <mutex_exit+0x46>
200002ae:	6803      	ldr	r3, [r0, #0]
200002b0:	f3bf 8f5f 	dmb	sy
200002b4:	2200      	movs	r2, #0
200002b6:	601a      	str	r2, [r3, #0]
200002b8:	f381 8810 	msr	PRIMASK, r1
200002bc:	e7f1      	b.n	200002a2 <mutex_exit+0x2a>
200002be:	7103      	strb	r3, [r0, #4]
200002c0:	6803      	ldr	r3, [r0, #0]
200002c2:	f3bf 8f5f 	dmb	sy
200002c6:	2200      	movs	r2, #0
200002c8:	601a      	str	r2, [r3, #0]
200002ca:	f381 8810 	msr	PRIMASK, r1
200002ce:	bf40      	sev
200002d0:	e7e7      	b.n	200002a2 <mutex_exit+0x2a>
200002d2:	46c0      	nop			; (mov r8, r8)

200002d4 <spi_write_blocking>:
200002d4:	b530      	push	{r4, r5, lr}
200002d6:	0004      	movs	r4, r0
200002d8:	1e10      	subs	r0, r2, #0
200002da:	d00a      	beq.n	200002f2 <spi_write_blocking+0x1e>
200002dc:	000a      	movs	r2, r1
200002de:	180d      	adds	r5, r1, r0
200002e0:	2102      	movs	r1, #2
200002e2:	68e3      	ldr	r3, [r4, #12]
200002e4:	4219      	tst	r1, r3
200002e6:	d0fc      	beq.n	200002e2 <spi_write_blocking+0xe>
200002e8:	7813      	ldrb	r3, [r2, #0]
200002ea:	3201      	adds	r2, #1
200002ec:	60a3      	str	r3, [r4, #8]
200002ee:	4295      	cmp	r5, r2
200002f0:	d1f7      	bne.n	200002e2 <spi_write_blocking+0xe>
200002f2:	68e3      	ldr	r3, [r4, #12]
200002f4:	075b      	lsls	r3, r3, #29
200002f6:	d504      	bpl.n	20000302 <spi_write_blocking+0x2e>
200002f8:	2104      	movs	r1, #4
200002fa:	68a3      	ldr	r3, [r4, #8]
200002fc:	68e3      	ldr	r3, [r4, #12]
200002fe:	4219      	tst	r1, r3
20000300:	d1fb      	bne.n	200002fa <spi_write_blocking+0x26>
20000302:	2110      	movs	r1, #16
20000304:	68e3      	ldr	r3, [r4, #12]
20000306:	4219      	tst	r1, r3
20000308:	d1fc      	bne.n	20000304 <spi_write_blocking+0x30>
2000030a:	68e3      	ldr	r3, [r4, #12]
2000030c:	075b      	lsls	r3, r3, #29
2000030e:	d504      	bpl.n	2000031a <spi_write_blocking+0x46>
20000310:	2104      	movs	r1, #4
20000312:	68a3      	ldr	r3, [r4, #8]
20000314:	68e3      	ldr	r3, [r4, #12]
20000316:	4219      	tst	r1, r3
20000318:	d1fb      	bne.n	20000312 <spi_write_blocking+0x3e>
2000031a:	2301      	movs	r3, #1
2000031c:	6223      	str	r3, [r4, #32]
2000031e:	bd30      	pop	{r4, r5, pc}

20000320 <flash_init_boot2_copyout>:
20000320:	4808      	ldr	r0, [pc, #32]	; (20000344 <flash_init_boot2_copyout+0x24>)
20000322:	b510      	push	{r4, lr}
20000324:	7803      	ldrb	r3, [r0, #0]
20000326:	2b00      	cmp	r3, #0
20000328:	d10a      	bne.n	20000340 <flash_init_boot2_copyout+0x20>
2000032a:	2380      	movs	r3, #128	; 0x80
2000032c:	4906      	ldr	r1, [pc, #24]	; (20000348 <flash_init_boot2_copyout+0x28>)
2000032e:	4a07      	ldr	r2, [pc, #28]	; (2000034c <flash_init_boot2_copyout+0x2c>)
20000330:	055b      	lsls	r3, r3, #21
20000332:	681c      	ldr	r4, [r3, #0]
20000334:	50cc      	str	r4, [r1, r3]
20000336:	3304      	adds	r3, #4
20000338:	4293      	cmp	r3, r2
2000033a:	d1fa      	bne.n	20000332 <flash_init_boot2_copyout+0x12>
2000033c:	2301      	movs	r3, #1
2000033e:	7003      	strb	r3, [r0, #0]
20000340:	bd10      	pop	{r4, pc}
20000342:	46c0      	nop			; (mov r8, r8)
20000344:	2002abc2 	.word	0x2002abc2
20000348:	10027a10 	.word	0x10027a10
2000034c:	10000100 	.word	0x10000100

20000350 <flash_enable_xip_via_boot2>:
20000350:	b510      	push	{r4, lr}
20000352:	4b02      	ldr	r3, [pc, #8]	; (2000035c <flash_enable_xip_via_boot2+0xc>)
20000354:	3301      	adds	r3, #1
20000356:	4798      	blx	r3
20000358:	bd10      	pop	{r4, pc}
2000035a:	46c0      	nop			; (mov r8, r8)
2000035c:	20027a10 	.word	0x20027a10

20000360 <flash_range_erase>:
20000360:	b5f8      	push	{r3, r4, r5, r6, r7, lr}
20000362:	46ce      	mov	lr, r9
20000364:	4647      	mov	r7, r8
20000366:	2380      	movs	r3, #128	; 0x80
20000368:	1842      	adds	r2, r0, r1
2000036a:	0004      	movs	r4, r0
2000036c:	000d      	movs	r5, r1
2000036e:	b580      	push	{r7, lr}
20000370:	039b      	lsls	r3, r3, #14
20000372:	429a      	cmp	r2, r3
20000374:	d820      	bhi.n	200003b8 <flash_range_erase+0x58>
20000376:	4812      	ldr	r0, [pc, #72]	; (200003c0 <flash_range_erase+0x60>)
20000378:	f000 f8aa 	bl	200004d0 <__rom_func_lookup_veneer>
2000037c:	4681      	mov	r9, r0
2000037e:	4811      	ldr	r0, [pc, #68]	; (200003c4 <flash_range_erase+0x64>)
20000380:	f000 f8a6 	bl	200004d0 <__rom_func_lookup_veneer>
20000384:	4680      	mov	r8, r0
20000386:	4810      	ldr	r0, [pc, #64]	; (200003c8 <flash_range_erase+0x68>)
20000388:	f000 f8a2 	bl	200004d0 <__rom_func_lookup_veneer>
2000038c:	0007      	movs	r7, r0
2000038e:	480f      	ldr	r0, [pc, #60]	; (200003cc <flash_range_erase+0x6c>)
20000390:	f000 f89e 	bl	200004d0 <__rom_func_lookup_veneer>
20000394:	0006      	movs	r6, r0
20000396:	f7ff ffc3 	bl	20000320 <flash_init_boot2_copyout>
2000039a:	47c8      	blx	r9
2000039c:	47c0      	blx	r8
2000039e:	2280      	movs	r2, #128	; 0x80
200003a0:	0029      	movs	r1, r5
200003a2:	23d8      	movs	r3, #216	; 0xd8
200003a4:	0020      	movs	r0, r4
200003a6:	0252      	lsls	r2, r2, #9
200003a8:	47b8      	blx	r7
200003aa:	47b0      	blx	r6
200003ac:	f7ff ffd0 	bl	20000350 <flash_enable_xip_via_boot2>
200003b0:	bcc0      	pop	{r6, r7}
200003b2:	46b9      	mov	r9, r7
200003b4:	46b0      	mov	r8, r6
200003b6:	bdf8      	pop	{r3, r4, r5, r6, r7, pc}
200003b8:	f000 f86a 	bl	20000490 <__hard_assertion_failure_veneer>
200003bc:	e7db      	b.n	20000376 <flash_range_erase+0x16>
200003be:	46c0      	nop			; (mov r8, r8)
200003c0:	00004649 	.word	0x00004649
200003c4:	00005845 	.word	0x00005845
200003c8:	00004552 	.word	0x00004552
200003cc:	00004346 	.word	0x00004346

200003d0 <flash_range_program>:
200003d0:	b5f0      	push	{r4, r5, r6, r7, lr}
200003d2:	2380      	movs	r3, #128	; 0x80
200003d4:	4646      	mov	r6, r8
200003d6:	46d6      	mov	lr, sl
200003d8:	464f      	mov	r7, r9
200003da:	0015      	movs	r5, r2
200003dc:	1882      	adds	r2, r0, r2
200003de:	0004      	movs	r4, r0
200003e0:	4688      	mov	r8, r1
200003e2:	b5c0      	push	{r6, r7, lr}
200003e4:	039b      	lsls	r3, r3, #14
200003e6:	429a      	cmp	r2, r3
200003e8:	d81f      	bhi.n	2000042a <flash_range_program+0x5a>
200003ea:	4811      	ldr	r0, [pc, #68]	; (20000430 <flash_range_program+0x60>)
200003ec:	f000 f870 	bl	200004d0 <__rom_func_lookup_veneer>
200003f0:	4682      	mov	sl, r0
200003f2:	4810      	ldr	r0, [pc, #64]	; (20000434 <flash_range_program+0x64>)
200003f4:	f000 f86c 	bl	200004d0 <__rom_func_lookup_veneer>
200003f8:	4681      	mov	r9, r0
200003fa:	480f      	ldr	r0, [pc, #60]	; (20000438 <flash_range_program+0x68>)
200003fc:	f000 f868 	bl	200004d0 <__rom_func_lookup_veneer>
20000400:	0007      	movs	r7, r0
20000402:	480e      	ldr	r0, [pc, #56]	; (2000043c <flash_range_program+0x6c>)
20000404:	f000 f864 	bl	200004d0 <__rom_func_lookup_veneer>
20000408:	0006      	movs	r6, r0
2000040a:	f7ff ff89 	bl	20000320 <flash_init_boot2_copyout>
2000040e:	47d0      	blx	sl
20000410:	47c8      	blx	r9
20000412:	002a      	movs	r2, r5
20000414:	4641      	mov	r1, r8
20000416:	0020      	movs	r0, r4
20000418:	47b8      	blx	r7
2000041a:	47b0      	blx	r6
2000041c:	f7ff ff98 	bl	20000350 <flash_enable_xip_via_boot2>
20000420:	bce0      	pop	{r5, r6, r7}
20000422:	46ba      	mov	sl, r7
20000424:	46b1      	mov	r9, r6
20000426:	46a8      	mov	r8, r5
20000428:	bdf0      	pop	{r4, r5, r6, r7, pc}
2000042a:	f000 f831 	bl	20000490 <__hard_assertion_failure_veneer>
2000042e:	e7dc      	b.n	200003ea <flash_range_program+0x1a>
20000430:	00004649 	.word	0x00004649
20000434:	00005845 	.word	0x00005845
20000438:	00005052 	.word	0x00005052
2000043c:	00004346 	.word	0x00004346

20000440 <__aeabi_idiv0>:
20000440:	4770      	bx	lr
20000442:	46c0      	nop			; (mov r8, r8)

20000444 <memcmp>:
20000444:	b530      	push	{r4, r5, lr}
20000446:	2a03      	cmp	r2, #3
20000448:	d90c      	bls.n	20000464 <memcmp+0x20>
2000044a:	0003      	movs	r3, r0
2000044c:	430b      	orrs	r3, r1
2000044e:	079b      	lsls	r3, r3, #30
20000450:	d119      	bne.n	20000486 <memcmp+0x42>
20000452:	6803      	ldr	r3, [r0, #0]
20000454:	680c      	ldr	r4, [r1, #0]
20000456:	42a3      	cmp	r3, r4
20000458:	d115      	bne.n	20000486 <memcmp+0x42>
2000045a:	3a04      	subs	r2, #4
2000045c:	3004      	adds	r0, #4
2000045e:	3104      	adds	r1, #4
20000460:	2a03      	cmp	r2, #3
20000462:	d8f6      	bhi.n	20000452 <memcmp+0xe>
20000464:	1e55      	subs	r5, r2, #1
20000466:	2a00      	cmp	r2, #0
20000468:	d00b      	beq.n	20000482 <memcmp+0x3e>
2000046a:	2300      	movs	r3, #0
2000046c:	e003      	b.n	20000476 <memcmp+0x32>
2000046e:	1c5a      	adds	r2, r3, #1
20000470:	429d      	cmp	r5, r3
20000472:	d006      	beq.n	20000482 <memcmp+0x3e>
20000474:	0013      	movs	r3, r2
20000476:	5cc2      	ldrb	r2, [r0, r3]
20000478:	5ccc      	ldrb	r4, [r1, r3]
2000047a:	42a2      	cmp	r2, r4
2000047c:	d0f7      	beq.n	2000046e <memcmp+0x2a>
2000047e:	1b10      	subs	r0, r2, r4
20000480:	e000      	b.n	20000484 <memcmp+0x40>
20000482:	2000      	movs	r0, #0
20000484:	bd30      	pop	{r4, r5, pc}
20000486:	1e55      	subs	r5, r2, #1
20000488:	e7ef      	b.n	2000046a <memcmp+0x26>
2000048a:	46c0      	nop			; (mov r8, r8)
2000048c:	0000      	movs	r0, r0
	...

20000490 <__hard_assertion_failure_veneer>:
20000490:	b401      	push	{r0}
20000492:	4802      	ldr	r0, [pc, #8]	; (2000049c <__hard_assertion_failure_veneer+0xc>)
20000494:	4684      	mov	ip, r0
20000496:	bc01      	pop	{r0}
20000498:	4760      	bx	ip
2000049a:	bf00      	nop
2000049c:	10003965 	.word	0x10003965

200004a0 <__multicore_fifo_push_blocking_veneer>:
200004a0:	b401      	push	{r0}
200004a2:	4802      	ldr	r0, [pc, #8]	; (200004ac <__multicore_fifo_push_blocking_veneer+0xc>)
200004a4:	4684      	mov	ip, r0
200004a6:	bc01      	pop	{r0}
200004a8:	4760      	bx	ip
200004aa:	bf00      	nop
200004ac:	10004a9d 	.word	0x10004a9d

200004b0 <____wrap_puts_veneer>:
200004b0:	b401      	push	{r0}
200004b2:	4802      	ldr	r0, [pc, #8]	; (200004bc <____wrap_puts_veneer+0xc>)
200004b4:	4684      	mov	ip, r0
200004b6:	bc01      	pop	{r0}
200004b8:	4760      	bx	ip
200004ba:	bf00      	nop
200004bc:	10004941 	.word	0x10004941

200004c0 <__BuildStateMachineTables_veneer>:
200004c0:	b401      	push	{r0}
200004c2:	4802      	ldr	r0, [pc, #8]	; (200004cc <__BuildStateMachineTables_veneer+0xc>)
200004c4:	4684      	mov	ip, r0
200004c6:	bc01      	pop	{r0}
200004c8:	4760      	bx	ip
200004ca:	bf00      	nop
200004cc:	100019ad 	.word	0x100019ad

200004d0 <__rom_func_lookup_veneer>:
200004d0:	b401      	push	{r0}
200004d2:	4802      	ldr	r0, [pc, #8]	; (200004dc <__rom_func_lookup_veneer+0xc>)
200004d4:	4684      	mov	ip, r0
200004d6:	bc01      	pop	{r0}
200004d8:	4760      	bx	ip
200004da:	bf00      	nop
200004dc:	100040c1 	.word	0x100040c1

200004e0 <__panic_veneer>:
200004e0:	b401      	push	{r0}
200004e2:	4802      	ldr	r0, [pc, #8]	; (200004ec <__panic_veneer+0xc>)
200004e4:	4684      	mov	ip, r0
200004e6:	bc01      	pop	{r0}
200004e8:	4760      	bx	ip
200004ea:	bf00      	nop
200004ec:	10003935 	.word	0x10003935

200004f0 <__multicore_fifo_pop_blocking_veneer>:
200004f0:	b401      	push	{r0}
200004f2:	4802      	ldr	r0, [pc, #8]	; (200004fc <__multicore_fifo_pop_blocking_veneer+0xc>)
200004f4:	4684      	mov	ip, r0
200004f6:	bc01      	pop	{r0}
200004f8:	4760      	bx	ip
200004fa:	bf00      	nop
200004fc:	10004ab1 	.word	0x10004ab1

20000500 <CurrentPage>:
20000500:	00000001                                ....

20000504 <MessagesSinceWrite>:
20000504:	00000008                                ....

20000508 <SendBlockAddress>:
20000508:	ffffffff                                ....

2000050c <colorOLED>:
2000050c:	00000001                                ....

20000510 <palette>:
20000510:	fba0f800 7f80ff80 045f0500 780d781f     .........._..x.x

20000520 <Framebuffer>:
20000520:	20000525                                %.. 

20000524 <_Framebuffer>:
20000524:	00000040 00000000 00000000 00000000     @...............
	...

20000925 <striped_spin_lock_num>:
20000925:	                                         ...

20000928 <default_alarm_pool>:
20000928:	20000940 00000000 20000c30 20027b38     @.. ....0.. 8{. 
	...

20000940 <default_alarm_pool_heap>:
20000940:	20027b48 00000000 00000000 00000010     H{. ............

20000950 <irq_handler_chain_slots>:
20000950:	00000000 	.word	0x00000000
20000954:	00010000 	.word	0x00010000
	...
20000960:	00020000 	.word	0x00020000
	...
2000096c:	00030000 	.word	0x00030000
	...
20000978:	00ff0000 	.word	0x00ff0000
2000097c:	00000000 	.word	0x00000000

20000980 <irq_handler_chain_first_slot>:
20000980:	b500      	push	{lr}
20000982:	6848      	ldr	r0, [r1, #4]
20000984:	3101      	adds	r1, #1
20000986:	468e      	mov	lr, r1
20000988:	4700      	bx	r0

2000098a <irq_handler_chain_remove_tail>:
2000098a:	4670      	mov	r0, lr
2000098c:	3809      	subs	r0, #9
2000098e:	4901      	ldr	r1, [pc, #4]	; (20000994 <irq_handler_chain_remove_tail+0xa>)
20000990:	4788      	blx	r1
20000992:	bd00      	pop	{pc}
20000994:	10003e8d 	.word	0x10003e8d
	...

200009a0 <aeabi_bits_funcs>:
200009a0:	00003350 	.word	0x00003350
200009a4:	0000334c 	.word	0x0000334c
200009a8:	00003354 	.word	0x00003354
200009ac:	00003352 	.word	0x00003352

200009b0 <aeabi_bits_funcs_end>:
200009b0:	0000534d 	.word	0x0000534d
200009b4:	0000434d 	.word	0x0000434d
200009b8:	00003453 	.word	0x00003453
200009bc:	00003443 	.word	0x00003443

200009c0 <stdio_uart>:
200009c0:	100049c1 00000000 10004a0d 00000000     .I.......J......
200009d0:	00000100                                ....

200009d4 <i2c1_inst>:
200009d4:	40048000 00000000                       ...@....

200009dc <malloc_mutex>:
	...

200009e4 <print_mutex>:
	...

200009ec <__mutex_array_end>:
200009ec:	10004761 	.word	0x10004761
200009f0:	10004099 	.word	0x10004099
200009f4:	100045f1 	.word	0x100045f1
200009f8:	100046d1 	.word	0x100046d1

200009fc <__frame_dummy_init_array_entry>:
200009fc:	100002ed                                ....
